ARM GAS  /tmp/cczGDbKf.s 			page 1


   1              		.cpu cortex-m3
   2              		.eabi_attribute 20, 1
   3              		.eabi_attribute 21, 1
   4              		.eabi_attribute 23, 3
   5              		.eabi_attribute 24, 1
   6              		.eabi_attribute 25, 1
   7              		.eabi_attribute 26, 1
   8              		.eabi_attribute 30, 4
   9              		.eabi_attribute 34, 1
  10              		.eabi_attribute 18, 4
  11              		.file	"port.c"
  12              		.text
  13              	.Ltext0:
  14              		.cfi_sections	.debug_frame
  15              		.section	.text.prvPortStartFirstTask,"ax",%progbits
  16              		.align	1
  17              		.syntax unified
  18              		.thumb
  19              		.thumb_func
  20              		.fpu softvfp
  22              	prvPortStartFirstTask:
  23              	.LFB4:
  24              		.file 1 "Middlewares/Third_Party/FreeRTOS/Source/portable/GCC/ARM_CM3/port.c"
   1:Middlewares/Third_Party/FreeRTOS/Source/portable/GCC/ARM_CM3/port.c **** /*
   2:Middlewares/Third_Party/FreeRTOS/Source/portable/GCC/ARM_CM3/port.c ****     FreeRTOS V8.2.3 - Copyright (C) 2015 Real Time Engineers Ltd.
   3:Middlewares/Third_Party/FreeRTOS/Source/portable/GCC/ARM_CM3/port.c ****     All rights reserved
   4:Middlewares/Third_Party/FreeRTOS/Source/portable/GCC/ARM_CM3/port.c **** 
   5:Middlewares/Third_Party/FreeRTOS/Source/portable/GCC/ARM_CM3/port.c ****     VISIT http://www.FreeRTOS.org TO ENSURE YOU ARE USING THE LATEST VERSION.
   6:Middlewares/Third_Party/FreeRTOS/Source/portable/GCC/ARM_CM3/port.c **** 
   7:Middlewares/Third_Party/FreeRTOS/Source/portable/GCC/ARM_CM3/port.c ****     This file is part of the FreeRTOS distribution.
   8:Middlewares/Third_Party/FreeRTOS/Source/portable/GCC/ARM_CM3/port.c **** 
   9:Middlewares/Third_Party/FreeRTOS/Source/portable/GCC/ARM_CM3/port.c ****     FreeRTOS is free software; you can redistribute it and/or modify it under
  10:Middlewares/Third_Party/FreeRTOS/Source/portable/GCC/ARM_CM3/port.c ****     the terms of the GNU General Public License (version 2) as published by the
  11:Middlewares/Third_Party/FreeRTOS/Source/portable/GCC/ARM_CM3/port.c ****     Free Software Foundation >>>> AND MODIFIED BY <<<< the FreeRTOS exception.
  12:Middlewares/Third_Party/FreeRTOS/Source/portable/GCC/ARM_CM3/port.c **** 
  13:Middlewares/Third_Party/FreeRTOS/Source/portable/GCC/ARM_CM3/port.c ****     ***************************************************************************
  14:Middlewares/Third_Party/FreeRTOS/Source/portable/GCC/ARM_CM3/port.c ****     >>!   NOTE: The modification to the GPL is included to allow you to     !<<
  15:Middlewares/Third_Party/FreeRTOS/Source/portable/GCC/ARM_CM3/port.c ****     >>!   distribute a combined work that includes FreeRTOS without being   !<<
  16:Middlewares/Third_Party/FreeRTOS/Source/portable/GCC/ARM_CM3/port.c ****     >>!   obliged to provide the source code for proprietary components     !<<
  17:Middlewares/Third_Party/FreeRTOS/Source/portable/GCC/ARM_CM3/port.c ****     >>!   outside of the FreeRTOS kernel.                                   !<<
  18:Middlewares/Third_Party/FreeRTOS/Source/portable/GCC/ARM_CM3/port.c ****     ***************************************************************************
  19:Middlewares/Third_Party/FreeRTOS/Source/portable/GCC/ARM_CM3/port.c **** 
  20:Middlewares/Third_Party/FreeRTOS/Source/portable/GCC/ARM_CM3/port.c ****     FreeRTOS is distributed in the hope that it will be useful, but WITHOUT ANY
  21:Middlewares/Third_Party/FreeRTOS/Source/portable/GCC/ARM_CM3/port.c ****     WARRANTY; without even the implied warranty of MERCHANTABILITY or FITNESS
  22:Middlewares/Third_Party/FreeRTOS/Source/portable/GCC/ARM_CM3/port.c ****     FOR A PARTICULAR PURPOSE.  Full license text is available on the following
  23:Middlewares/Third_Party/FreeRTOS/Source/portable/GCC/ARM_CM3/port.c ****     link: http://www.freertos.org/a00114.html
  24:Middlewares/Third_Party/FreeRTOS/Source/portable/GCC/ARM_CM3/port.c **** 
  25:Middlewares/Third_Party/FreeRTOS/Source/portable/GCC/ARM_CM3/port.c ****     ***************************************************************************
  26:Middlewares/Third_Party/FreeRTOS/Source/portable/GCC/ARM_CM3/port.c ****      *                                                                       *
  27:Middlewares/Third_Party/FreeRTOS/Source/portable/GCC/ARM_CM3/port.c ****      *    FreeRTOS provides completely free yet professionally developed,    *
  28:Middlewares/Third_Party/FreeRTOS/Source/portable/GCC/ARM_CM3/port.c ****      *    robust, strictly quality controlled, supported, and cross          *
  29:Middlewares/Third_Party/FreeRTOS/Source/portable/GCC/ARM_CM3/port.c ****      *    platform software that is more than just the market leader, it     *
  30:Middlewares/Third_Party/FreeRTOS/Source/portable/GCC/ARM_CM3/port.c ****      *    is the industry's de facto standard.                               *
  31:Middlewares/Third_Party/FreeRTOS/Source/portable/GCC/ARM_CM3/port.c ****      *                                                                       *
  32:Middlewares/Third_Party/FreeRTOS/Source/portable/GCC/ARM_CM3/port.c ****      *    Help yourself get started quickly while simultaneously helping     *
  33:Middlewares/Third_Party/FreeRTOS/Source/portable/GCC/ARM_CM3/port.c ****      *    to support the FreeRTOS project by purchasing a FreeRTOS           *
  34:Middlewares/Third_Party/FreeRTOS/Source/portable/GCC/ARM_CM3/port.c ****      *    tutorial book, reference manual, or both:                          *
ARM GAS  /tmp/cczGDbKf.s 			page 2


  35:Middlewares/Third_Party/FreeRTOS/Source/portable/GCC/ARM_CM3/port.c ****      *    http://www.FreeRTOS.org/Documentation                              *
  36:Middlewares/Third_Party/FreeRTOS/Source/portable/GCC/ARM_CM3/port.c ****      *                                                                       *
  37:Middlewares/Third_Party/FreeRTOS/Source/portable/GCC/ARM_CM3/port.c ****     ***************************************************************************
  38:Middlewares/Third_Party/FreeRTOS/Source/portable/GCC/ARM_CM3/port.c **** 
  39:Middlewares/Third_Party/FreeRTOS/Source/portable/GCC/ARM_CM3/port.c ****     http://www.FreeRTOS.org/FAQHelp.html - Having a problem?  Start by reading
  40:Middlewares/Third_Party/FreeRTOS/Source/portable/GCC/ARM_CM3/port.c ****     the FAQ page "My application does not run, what could be wrong?".  Have you
  41:Middlewares/Third_Party/FreeRTOS/Source/portable/GCC/ARM_CM3/port.c ****     defined configASSERT()?
  42:Middlewares/Third_Party/FreeRTOS/Source/portable/GCC/ARM_CM3/port.c **** 
  43:Middlewares/Third_Party/FreeRTOS/Source/portable/GCC/ARM_CM3/port.c ****     http://www.FreeRTOS.org/support - In return for receiving this top quality
  44:Middlewares/Third_Party/FreeRTOS/Source/portable/GCC/ARM_CM3/port.c ****     embedded software for free we request you assist our global community by
  45:Middlewares/Third_Party/FreeRTOS/Source/portable/GCC/ARM_CM3/port.c ****     participating in the support forum.
  46:Middlewares/Third_Party/FreeRTOS/Source/portable/GCC/ARM_CM3/port.c **** 
  47:Middlewares/Third_Party/FreeRTOS/Source/portable/GCC/ARM_CM3/port.c ****     http://www.FreeRTOS.org/training - Investing in training allows your team to
  48:Middlewares/Third_Party/FreeRTOS/Source/portable/GCC/ARM_CM3/port.c ****     be as productive as possible as early as possible.  Now you can receive
  49:Middlewares/Third_Party/FreeRTOS/Source/portable/GCC/ARM_CM3/port.c ****     FreeRTOS training directly from Richard Barry, CEO of Real Time Engineers
  50:Middlewares/Third_Party/FreeRTOS/Source/portable/GCC/ARM_CM3/port.c ****     Ltd, and the world's leading authority on the world's leading RTOS.
  51:Middlewares/Third_Party/FreeRTOS/Source/portable/GCC/ARM_CM3/port.c **** 
  52:Middlewares/Third_Party/FreeRTOS/Source/portable/GCC/ARM_CM3/port.c ****     http://www.FreeRTOS.org/plus - A selection of FreeRTOS ecosystem products,
  53:Middlewares/Third_Party/FreeRTOS/Source/portable/GCC/ARM_CM3/port.c ****     including FreeRTOS+Trace - an indispensable productivity tool, a DOS
  54:Middlewares/Third_Party/FreeRTOS/Source/portable/GCC/ARM_CM3/port.c ****     compatible FAT file system, and our tiny thread aware UDP/IP stack.
  55:Middlewares/Third_Party/FreeRTOS/Source/portable/GCC/ARM_CM3/port.c **** 
  56:Middlewares/Third_Party/FreeRTOS/Source/portable/GCC/ARM_CM3/port.c ****     http://www.FreeRTOS.org/labs - Where new FreeRTOS products go to incubate.
  57:Middlewares/Third_Party/FreeRTOS/Source/portable/GCC/ARM_CM3/port.c ****     Come and try FreeRTOS+TCP, our new open source TCP/IP stack for FreeRTOS.
  58:Middlewares/Third_Party/FreeRTOS/Source/portable/GCC/ARM_CM3/port.c **** 
  59:Middlewares/Third_Party/FreeRTOS/Source/portable/GCC/ARM_CM3/port.c ****     http://www.OpenRTOS.com - Real Time Engineers ltd. license FreeRTOS to High
  60:Middlewares/Third_Party/FreeRTOS/Source/portable/GCC/ARM_CM3/port.c ****     Integrity Systems ltd. to sell under the OpenRTOS brand.  Low cost OpenRTOS
  61:Middlewares/Third_Party/FreeRTOS/Source/portable/GCC/ARM_CM3/port.c ****     licenses offer ticketed support, indemnification and commercial middleware.
  62:Middlewares/Third_Party/FreeRTOS/Source/portable/GCC/ARM_CM3/port.c **** 
  63:Middlewares/Third_Party/FreeRTOS/Source/portable/GCC/ARM_CM3/port.c ****     http://www.SafeRTOS.com - High Integrity Systems also provide a safety
  64:Middlewares/Third_Party/FreeRTOS/Source/portable/GCC/ARM_CM3/port.c ****     engineered and independently SIL3 certified version for use in safety and
  65:Middlewares/Third_Party/FreeRTOS/Source/portable/GCC/ARM_CM3/port.c ****     mission critical applications that require provable dependability.
  66:Middlewares/Third_Party/FreeRTOS/Source/portable/GCC/ARM_CM3/port.c **** 
  67:Middlewares/Third_Party/FreeRTOS/Source/portable/GCC/ARM_CM3/port.c ****     1 tab == 4 spaces!
  68:Middlewares/Third_Party/FreeRTOS/Source/portable/GCC/ARM_CM3/port.c **** */
  69:Middlewares/Third_Party/FreeRTOS/Source/portable/GCC/ARM_CM3/port.c **** 
  70:Middlewares/Third_Party/FreeRTOS/Source/portable/GCC/ARM_CM3/port.c **** /*-----------------------------------------------------------
  71:Middlewares/Third_Party/FreeRTOS/Source/portable/GCC/ARM_CM3/port.c ****  * Implementation of functions defined in portable.h for the ARM CM3 port.
  72:Middlewares/Third_Party/FreeRTOS/Source/portable/GCC/ARM_CM3/port.c ****  *----------------------------------------------------------*/
  73:Middlewares/Third_Party/FreeRTOS/Source/portable/GCC/ARM_CM3/port.c **** 
  74:Middlewares/Third_Party/FreeRTOS/Source/portable/GCC/ARM_CM3/port.c **** /* Scheduler includes. */
  75:Middlewares/Third_Party/FreeRTOS/Source/portable/GCC/ARM_CM3/port.c **** #include "FreeRTOS.h"
  76:Middlewares/Third_Party/FreeRTOS/Source/portable/GCC/ARM_CM3/port.c **** #include "task.h"
  77:Middlewares/Third_Party/FreeRTOS/Source/portable/GCC/ARM_CM3/port.c **** 
  78:Middlewares/Third_Party/FreeRTOS/Source/portable/GCC/ARM_CM3/port.c **** /* For backward compatibility, ensure configKERNEL_INTERRUPT_PRIORITY is
  79:Middlewares/Third_Party/FreeRTOS/Source/portable/GCC/ARM_CM3/port.c **** defined.  The value should also ensure backward compatibility.
  80:Middlewares/Third_Party/FreeRTOS/Source/portable/GCC/ARM_CM3/port.c **** FreeRTOS.org versions prior to V4.4.0 did not include this definition. */
  81:Middlewares/Third_Party/FreeRTOS/Source/portable/GCC/ARM_CM3/port.c **** #ifndef configKERNEL_INTERRUPT_PRIORITY
  82:Middlewares/Third_Party/FreeRTOS/Source/portable/GCC/ARM_CM3/port.c **** 	#define configKERNEL_INTERRUPT_PRIORITY 255
  83:Middlewares/Third_Party/FreeRTOS/Source/portable/GCC/ARM_CM3/port.c **** #endif
  84:Middlewares/Third_Party/FreeRTOS/Source/portable/GCC/ARM_CM3/port.c **** 
  85:Middlewares/Third_Party/FreeRTOS/Source/portable/GCC/ARM_CM3/port.c **** #ifndef configSYSTICK_CLOCK_HZ
  86:Middlewares/Third_Party/FreeRTOS/Source/portable/GCC/ARM_CM3/port.c **** 	#define configSYSTICK_CLOCK_HZ configCPU_CLOCK_HZ
  87:Middlewares/Third_Party/FreeRTOS/Source/portable/GCC/ARM_CM3/port.c **** 	/* Ensure the SysTick is clocked at the same frequency as the core. */
  88:Middlewares/Third_Party/FreeRTOS/Source/portable/GCC/ARM_CM3/port.c **** 	#define portNVIC_SYSTICK_CLK_BIT	( 1UL << 2UL )
  89:Middlewares/Third_Party/FreeRTOS/Source/portable/GCC/ARM_CM3/port.c **** #else
  90:Middlewares/Third_Party/FreeRTOS/Source/portable/GCC/ARM_CM3/port.c **** 	/* The way the SysTick is clocked is not modified in case it is not the same
  91:Middlewares/Third_Party/FreeRTOS/Source/portable/GCC/ARM_CM3/port.c **** 	as the core. */
ARM GAS  /tmp/cczGDbKf.s 			page 3


  92:Middlewares/Third_Party/FreeRTOS/Source/portable/GCC/ARM_CM3/port.c **** 	#define portNVIC_SYSTICK_CLK_BIT	( 0 )
  93:Middlewares/Third_Party/FreeRTOS/Source/portable/GCC/ARM_CM3/port.c **** #endif
  94:Middlewares/Third_Party/FreeRTOS/Source/portable/GCC/ARM_CM3/port.c **** 
  95:Middlewares/Third_Party/FreeRTOS/Source/portable/GCC/ARM_CM3/port.c **** /* Constants required to manipulate the core.  Registers first... */
  96:Middlewares/Third_Party/FreeRTOS/Source/portable/GCC/ARM_CM3/port.c **** #define portNVIC_SYSTICK_CTRL_REG			( * ( ( volatile uint32_t * ) 0xe000e010 ) )
  97:Middlewares/Third_Party/FreeRTOS/Source/portable/GCC/ARM_CM3/port.c **** #define portNVIC_SYSTICK_LOAD_REG			( * ( ( volatile uint32_t * ) 0xe000e014 ) )
  98:Middlewares/Third_Party/FreeRTOS/Source/portable/GCC/ARM_CM3/port.c **** #define portNVIC_SYSTICK_CURRENT_VALUE_REG	( * ( ( volatile uint32_t * ) 0xe000e018 ) )
  99:Middlewares/Third_Party/FreeRTOS/Source/portable/GCC/ARM_CM3/port.c **** #define portNVIC_SYSPRI2_REG				( * ( ( volatile uint32_t * ) 0xe000ed20 ) )
 100:Middlewares/Third_Party/FreeRTOS/Source/portable/GCC/ARM_CM3/port.c **** /* ...then bits in the registers. */
 101:Middlewares/Third_Party/FreeRTOS/Source/portable/GCC/ARM_CM3/port.c **** #define portNVIC_SYSTICK_INT_BIT			( 1UL << 1UL )
 102:Middlewares/Third_Party/FreeRTOS/Source/portable/GCC/ARM_CM3/port.c **** #define portNVIC_SYSTICK_ENABLE_BIT			( 1UL << 0UL )
 103:Middlewares/Third_Party/FreeRTOS/Source/portable/GCC/ARM_CM3/port.c **** #define portNVIC_SYSTICK_COUNT_FLAG_BIT		( 1UL << 16UL )
 104:Middlewares/Third_Party/FreeRTOS/Source/portable/GCC/ARM_CM3/port.c **** #define portNVIC_PENDSVCLEAR_BIT 			( 1UL << 27UL )
 105:Middlewares/Third_Party/FreeRTOS/Source/portable/GCC/ARM_CM3/port.c **** #define portNVIC_PEND_SYSTICK_CLEAR_BIT		( 1UL << 25UL )
 106:Middlewares/Third_Party/FreeRTOS/Source/portable/GCC/ARM_CM3/port.c **** 
 107:Middlewares/Third_Party/FreeRTOS/Source/portable/GCC/ARM_CM3/port.c **** #define portNVIC_PENDSV_PRI					( ( ( uint32_t ) configKERNEL_INTERRUPT_PRIORITY ) << 16UL )
 108:Middlewares/Third_Party/FreeRTOS/Source/portable/GCC/ARM_CM3/port.c **** #define portNVIC_SYSTICK_PRI				( ( ( uint32_t ) configKERNEL_INTERRUPT_PRIORITY ) << 24UL )
 109:Middlewares/Third_Party/FreeRTOS/Source/portable/GCC/ARM_CM3/port.c **** 
 110:Middlewares/Third_Party/FreeRTOS/Source/portable/GCC/ARM_CM3/port.c **** /* Constants required to check the validity of an interrupt priority. */
 111:Middlewares/Third_Party/FreeRTOS/Source/portable/GCC/ARM_CM3/port.c **** #define portFIRST_USER_INTERRUPT_NUMBER		( 16 )
 112:Middlewares/Third_Party/FreeRTOS/Source/portable/GCC/ARM_CM3/port.c **** #define portNVIC_IP_REGISTERS_OFFSET_16 	( 0xE000E3F0 )
 113:Middlewares/Third_Party/FreeRTOS/Source/portable/GCC/ARM_CM3/port.c **** #define portAIRCR_REG						( * ( ( volatile uint32_t * ) 0xE000ED0C ) )
 114:Middlewares/Third_Party/FreeRTOS/Source/portable/GCC/ARM_CM3/port.c **** #define portMAX_8_BIT_VALUE					( ( uint8_t ) 0xff )
 115:Middlewares/Third_Party/FreeRTOS/Source/portable/GCC/ARM_CM3/port.c **** #define portTOP_BIT_OF_BYTE					( ( uint8_t ) 0x80 )
 116:Middlewares/Third_Party/FreeRTOS/Source/portable/GCC/ARM_CM3/port.c **** #define portMAX_PRIGROUP_BITS				( ( uint8_t ) 7 )
 117:Middlewares/Third_Party/FreeRTOS/Source/portable/GCC/ARM_CM3/port.c **** #define portPRIORITY_GROUP_MASK				( 0x07UL << 8UL )
 118:Middlewares/Third_Party/FreeRTOS/Source/portable/GCC/ARM_CM3/port.c **** #define portPRIGROUP_SHIFT					( 8UL )
 119:Middlewares/Third_Party/FreeRTOS/Source/portable/GCC/ARM_CM3/port.c **** 
 120:Middlewares/Third_Party/FreeRTOS/Source/portable/GCC/ARM_CM3/port.c **** /* Masks off all bits but the VECTACTIVE bits in the ICSR register. */
 121:Middlewares/Third_Party/FreeRTOS/Source/portable/GCC/ARM_CM3/port.c **** #define portVECTACTIVE_MASK					( 0xFFUL )
 122:Middlewares/Third_Party/FreeRTOS/Source/portable/GCC/ARM_CM3/port.c **** 
 123:Middlewares/Third_Party/FreeRTOS/Source/portable/GCC/ARM_CM3/port.c **** /* Constants required to set up the initial stack. */
 124:Middlewares/Third_Party/FreeRTOS/Source/portable/GCC/ARM_CM3/port.c **** #define portINITIAL_XPSR					( 0x01000000UL )
 125:Middlewares/Third_Party/FreeRTOS/Source/portable/GCC/ARM_CM3/port.c **** 
 126:Middlewares/Third_Party/FreeRTOS/Source/portable/GCC/ARM_CM3/port.c **** /* The systick is a 24-bit counter. */
 127:Middlewares/Third_Party/FreeRTOS/Source/portable/GCC/ARM_CM3/port.c **** #define portMAX_24_BIT_NUMBER				( 0xffffffUL )
 128:Middlewares/Third_Party/FreeRTOS/Source/portable/GCC/ARM_CM3/port.c **** 
 129:Middlewares/Third_Party/FreeRTOS/Source/portable/GCC/ARM_CM3/port.c **** /* A fiddle factor to estimate the number of SysTick counts that would have
 130:Middlewares/Third_Party/FreeRTOS/Source/portable/GCC/ARM_CM3/port.c **** occurred while the SysTick counter is stopped during tickless idle
 131:Middlewares/Third_Party/FreeRTOS/Source/portable/GCC/ARM_CM3/port.c **** calculations. */
 132:Middlewares/Third_Party/FreeRTOS/Source/portable/GCC/ARM_CM3/port.c **** #define portMISSED_COUNTS_FACTOR			( 45UL )
 133:Middlewares/Third_Party/FreeRTOS/Source/portable/GCC/ARM_CM3/port.c **** 
 134:Middlewares/Third_Party/FreeRTOS/Source/portable/GCC/ARM_CM3/port.c **** /* Let the user override the pre-loading of the initial LR with the address of
 135:Middlewares/Third_Party/FreeRTOS/Source/portable/GCC/ARM_CM3/port.c **** prvTaskExitError() in case it messes up unwinding of the stack in the
 136:Middlewares/Third_Party/FreeRTOS/Source/portable/GCC/ARM_CM3/port.c **** debugger. */
 137:Middlewares/Third_Party/FreeRTOS/Source/portable/GCC/ARM_CM3/port.c **** #ifdef configTASK_RETURN_ADDRESS
 138:Middlewares/Third_Party/FreeRTOS/Source/portable/GCC/ARM_CM3/port.c **** 	#define portTASK_RETURN_ADDRESS	configTASK_RETURN_ADDRESS
 139:Middlewares/Third_Party/FreeRTOS/Source/portable/GCC/ARM_CM3/port.c **** #else
 140:Middlewares/Third_Party/FreeRTOS/Source/portable/GCC/ARM_CM3/port.c **** 	#define portTASK_RETURN_ADDRESS	prvTaskExitError
 141:Middlewares/Third_Party/FreeRTOS/Source/portable/GCC/ARM_CM3/port.c **** #endif
 142:Middlewares/Third_Party/FreeRTOS/Source/portable/GCC/ARM_CM3/port.c **** 
 143:Middlewares/Third_Party/FreeRTOS/Source/portable/GCC/ARM_CM3/port.c **** /* Each task maintains its own interrupt status in the critical nesting
 144:Middlewares/Third_Party/FreeRTOS/Source/portable/GCC/ARM_CM3/port.c **** variable. */
 145:Middlewares/Third_Party/FreeRTOS/Source/portable/GCC/ARM_CM3/port.c **** static UBaseType_t uxCriticalNesting = 0xaaaaaaaa;
 146:Middlewares/Third_Party/FreeRTOS/Source/portable/GCC/ARM_CM3/port.c **** 
 147:Middlewares/Third_Party/FreeRTOS/Source/portable/GCC/ARM_CM3/port.c **** /*
 148:Middlewares/Third_Party/FreeRTOS/Source/portable/GCC/ARM_CM3/port.c ****  * Setup the timer to generate the tick interrupts.  The implementation in this
ARM GAS  /tmp/cczGDbKf.s 			page 4


 149:Middlewares/Third_Party/FreeRTOS/Source/portable/GCC/ARM_CM3/port.c ****  * file is weak to allow application writers to change the timer used to
 150:Middlewares/Third_Party/FreeRTOS/Source/portable/GCC/ARM_CM3/port.c ****  * generate the tick interrupt.
 151:Middlewares/Third_Party/FreeRTOS/Source/portable/GCC/ARM_CM3/port.c ****  */
 152:Middlewares/Third_Party/FreeRTOS/Source/portable/GCC/ARM_CM3/port.c **** void vPortSetupTimerInterrupt( void );
 153:Middlewares/Third_Party/FreeRTOS/Source/portable/GCC/ARM_CM3/port.c **** 
 154:Middlewares/Third_Party/FreeRTOS/Source/portable/GCC/ARM_CM3/port.c **** /*
 155:Middlewares/Third_Party/FreeRTOS/Source/portable/GCC/ARM_CM3/port.c ****  * Exception handlers.
 156:Middlewares/Third_Party/FreeRTOS/Source/portable/GCC/ARM_CM3/port.c ****  */
 157:Middlewares/Third_Party/FreeRTOS/Source/portable/GCC/ARM_CM3/port.c **** void xPortPendSVHandler( void ) __attribute__ (( naked ));
 158:Middlewares/Third_Party/FreeRTOS/Source/portable/GCC/ARM_CM3/port.c **** void xPortSysTickHandler( void );
 159:Middlewares/Third_Party/FreeRTOS/Source/portable/GCC/ARM_CM3/port.c **** void vPortSVCHandler( void ) __attribute__ (( naked ));
 160:Middlewares/Third_Party/FreeRTOS/Source/portable/GCC/ARM_CM3/port.c **** 
 161:Middlewares/Third_Party/FreeRTOS/Source/portable/GCC/ARM_CM3/port.c **** /*
 162:Middlewares/Third_Party/FreeRTOS/Source/portable/GCC/ARM_CM3/port.c ****  * Start first task is a separate function so it can be tested in isolation.
 163:Middlewares/Third_Party/FreeRTOS/Source/portable/GCC/ARM_CM3/port.c ****  */
 164:Middlewares/Third_Party/FreeRTOS/Source/portable/GCC/ARM_CM3/port.c **** static void prvPortStartFirstTask( void ) __attribute__ (( naked ));
 165:Middlewares/Third_Party/FreeRTOS/Source/portable/GCC/ARM_CM3/port.c **** 
 166:Middlewares/Third_Party/FreeRTOS/Source/portable/GCC/ARM_CM3/port.c **** /*
 167:Middlewares/Third_Party/FreeRTOS/Source/portable/GCC/ARM_CM3/port.c ****  * Used to catch tasks that attempt to return from their implementing function.
 168:Middlewares/Third_Party/FreeRTOS/Source/portable/GCC/ARM_CM3/port.c ****  */
 169:Middlewares/Third_Party/FreeRTOS/Source/portable/GCC/ARM_CM3/port.c **** static void prvTaskExitError( void );
 170:Middlewares/Third_Party/FreeRTOS/Source/portable/GCC/ARM_CM3/port.c **** 
 171:Middlewares/Third_Party/FreeRTOS/Source/portable/GCC/ARM_CM3/port.c **** /*-----------------------------------------------------------*/
 172:Middlewares/Third_Party/FreeRTOS/Source/portable/GCC/ARM_CM3/port.c **** 
 173:Middlewares/Third_Party/FreeRTOS/Source/portable/GCC/ARM_CM3/port.c **** /*
 174:Middlewares/Third_Party/FreeRTOS/Source/portable/GCC/ARM_CM3/port.c ****  * The number of SysTick increments that make up one tick period.
 175:Middlewares/Third_Party/FreeRTOS/Source/portable/GCC/ARM_CM3/port.c ****  */
 176:Middlewares/Third_Party/FreeRTOS/Source/portable/GCC/ARM_CM3/port.c **** #if configUSE_TICKLESS_IDLE == 1
 177:Middlewares/Third_Party/FreeRTOS/Source/portable/GCC/ARM_CM3/port.c **** 	static uint32_t ulTimerCountsForOneTick = 0;
 178:Middlewares/Third_Party/FreeRTOS/Source/portable/GCC/ARM_CM3/port.c **** #endif /* configUSE_TICKLESS_IDLE */
 179:Middlewares/Third_Party/FreeRTOS/Source/portable/GCC/ARM_CM3/port.c **** 
 180:Middlewares/Third_Party/FreeRTOS/Source/portable/GCC/ARM_CM3/port.c **** /*
 181:Middlewares/Third_Party/FreeRTOS/Source/portable/GCC/ARM_CM3/port.c ****  * The maximum number of tick periods that can be suppressed is limited by the
 182:Middlewares/Third_Party/FreeRTOS/Source/portable/GCC/ARM_CM3/port.c ****  * 24 bit resolution of the SysTick timer.
 183:Middlewares/Third_Party/FreeRTOS/Source/portable/GCC/ARM_CM3/port.c ****  */
 184:Middlewares/Third_Party/FreeRTOS/Source/portable/GCC/ARM_CM3/port.c **** #if configUSE_TICKLESS_IDLE == 1
 185:Middlewares/Third_Party/FreeRTOS/Source/portable/GCC/ARM_CM3/port.c **** 	static uint32_t xMaximumPossibleSuppressedTicks = 0;
 186:Middlewares/Third_Party/FreeRTOS/Source/portable/GCC/ARM_CM3/port.c **** #endif /* configUSE_TICKLESS_IDLE */
 187:Middlewares/Third_Party/FreeRTOS/Source/portable/GCC/ARM_CM3/port.c **** 
 188:Middlewares/Third_Party/FreeRTOS/Source/portable/GCC/ARM_CM3/port.c **** /*
 189:Middlewares/Third_Party/FreeRTOS/Source/portable/GCC/ARM_CM3/port.c ****  * Compensate for the CPU cycles that pass while the SysTick is stopped (low
 190:Middlewares/Third_Party/FreeRTOS/Source/portable/GCC/ARM_CM3/port.c ****  * power functionality only.
 191:Middlewares/Third_Party/FreeRTOS/Source/portable/GCC/ARM_CM3/port.c ****  */
 192:Middlewares/Third_Party/FreeRTOS/Source/portable/GCC/ARM_CM3/port.c **** #if configUSE_TICKLESS_IDLE == 1
 193:Middlewares/Third_Party/FreeRTOS/Source/portable/GCC/ARM_CM3/port.c **** 	static uint32_t ulStoppedTimerCompensation = 0;
 194:Middlewares/Third_Party/FreeRTOS/Source/portable/GCC/ARM_CM3/port.c **** #endif /* configUSE_TICKLESS_IDLE */
 195:Middlewares/Third_Party/FreeRTOS/Source/portable/GCC/ARM_CM3/port.c **** 
 196:Middlewares/Third_Party/FreeRTOS/Source/portable/GCC/ARM_CM3/port.c **** /*
 197:Middlewares/Third_Party/FreeRTOS/Source/portable/GCC/ARM_CM3/port.c ****  * Used by the portASSERT_IF_INTERRUPT_PRIORITY_INVALID() macro to ensure
 198:Middlewares/Third_Party/FreeRTOS/Source/portable/GCC/ARM_CM3/port.c ****  * FreeRTOS API functions are not called from interrupts that have been assigned
 199:Middlewares/Third_Party/FreeRTOS/Source/portable/GCC/ARM_CM3/port.c ****  * a priority above configMAX_SYSCALL_INTERRUPT_PRIORITY.
 200:Middlewares/Third_Party/FreeRTOS/Source/portable/GCC/ARM_CM3/port.c ****  */
 201:Middlewares/Third_Party/FreeRTOS/Source/portable/GCC/ARM_CM3/port.c **** #if ( configASSERT_DEFINED == 1 )
 202:Middlewares/Third_Party/FreeRTOS/Source/portable/GCC/ARM_CM3/port.c **** 	 static uint8_t ucMaxSysCallPriority = 0;
 203:Middlewares/Third_Party/FreeRTOS/Source/portable/GCC/ARM_CM3/port.c **** 	 static uint32_t ulMaxPRIGROUPValue = 0;
 204:Middlewares/Third_Party/FreeRTOS/Source/portable/GCC/ARM_CM3/port.c **** 	 static const volatile uint8_t * const pcInterruptPriorityRegisters = ( const volatile uint8_t * c
 205:Middlewares/Third_Party/FreeRTOS/Source/portable/GCC/ARM_CM3/port.c **** #endif /* configASSERT_DEFINED */
ARM GAS  /tmp/cczGDbKf.s 			page 5


 206:Middlewares/Third_Party/FreeRTOS/Source/portable/GCC/ARM_CM3/port.c **** 
 207:Middlewares/Third_Party/FreeRTOS/Source/portable/GCC/ARM_CM3/port.c **** /*-----------------------------------------------------------*/
 208:Middlewares/Third_Party/FreeRTOS/Source/portable/GCC/ARM_CM3/port.c **** 
 209:Middlewares/Third_Party/FreeRTOS/Source/portable/GCC/ARM_CM3/port.c **** /*
 210:Middlewares/Third_Party/FreeRTOS/Source/portable/GCC/ARM_CM3/port.c ****  * See header file for description.
 211:Middlewares/Third_Party/FreeRTOS/Source/portable/GCC/ARM_CM3/port.c ****  */
 212:Middlewares/Third_Party/FreeRTOS/Source/portable/GCC/ARM_CM3/port.c **** StackType_t *pxPortInitialiseStack( StackType_t *pxTopOfStack, TaskFunction_t pxCode, void *pvParam
 213:Middlewares/Third_Party/FreeRTOS/Source/portable/GCC/ARM_CM3/port.c **** {
 214:Middlewares/Third_Party/FreeRTOS/Source/portable/GCC/ARM_CM3/port.c **** 	/* Simulate the stack frame as it would be created by a context switch
 215:Middlewares/Third_Party/FreeRTOS/Source/portable/GCC/ARM_CM3/port.c **** 	interrupt. */
 216:Middlewares/Third_Party/FreeRTOS/Source/portable/GCC/ARM_CM3/port.c **** 	pxTopOfStack--; /* Offset added to account for the way the MCU uses the stack on entry/exit of int
 217:Middlewares/Third_Party/FreeRTOS/Source/portable/GCC/ARM_CM3/port.c **** 	*pxTopOfStack = portINITIAL_XPSR;	/* xPSR */
 218:Middlewares/Third_Party/FreeRTOS/Source/portable/GCC/ARM_CM3/port.c **** 	pxTopOfStack--;
 219:Middlewares/Third_Party/FreeRTOS/Source/portable/GCC/ARM_CM3/port.c **** 	*pxTopOfStack = ( StackType_t ) pxCode;	/* PC */
 220:Middlewares/Third_Party/FreeRTOS/Source/portable/GCC/ARM_CM3/port.c **** 	pxTopOfStack--;
 221:Middlewares/Third_Party/FreeRTOS/Source/portable/GCC/ARM_CM3/port.c **** 	*pxTopOfStack = ( StackType_t ) portTASK_RETURN_ADDRESS;	/* LR */
 222:Middlewares/Third_Party/FreeRTOS/Source/portable/GCC/ARM_CM3/port.c **** 	pxTopOfStack -= 5;	/* R12, R3, R2 and R1. */
 223:Middlewares/Third_Party/FreeRTOS/Source/portable/GCC/ARM_CM3/port.c **** 	*pxTopOfStack = ( StackType_t ) pvParameters;	/* R0 */
 224:Middlewares/Third_Party/FreeRTOS/Source/portable/GCC/ARM_CM3/port.c **** 	pxTopOfStack -= 8;	/* R11, R10, R9, R8, R7, R6, R5 and R4. */
 225:Middlewares/Third_Party/FreeRTOS/Source/portable/GCC/ARM_CM3/port.c **** 
 226:Middlewares/Third_Party/FreeRTOS/Source/portable/GCC/ARM_CM3/port.c **** 	return pxTopOfStack;
 227:Middlewares/Third_Party/FreeRTOS/Source/portable/GCC/ARM_CM3/port.c **** }
 228:Middlewares/Third_Party/FreeRTOS/Source/portable/GCC/ARM_CM3/port.c **** /*-----------------------------------------------------------*/
 229:Middlewares/Third_Party/FreeRTOS/Source/portable/GCC/ARM_CM3/port.c **** 
 230:Middlewares/Third_Party/FreeRTOS/Source/portable/GCC/ARM_CM3/port.c **** static void prvTaskExitError( void )
 231:Middlewares/Third_Party/FreeRTOS/Source/portable/GCC/ARM_CM3/port.c **** {
 232:Middlewares/Third_Party/FreeRTOS/Source/portable/GCC/ARM_CM3/port.c **** 	/* A function that implements a task must not exit or attempt to return to
 233:Middlewares/Third_Party/FreeRTOS/Source/portable/GCC/ARM_CM3/port.c **** 	its caller as there is nothing to return to.  If a task wants to exit it
 234:Middlewares/Third_Party/FreeRTOS/Source/portable/GCC/ARM_CM3/port.c **** 	should instead call vTaskDelete( NULL ).
 235:Middlewares/Third_Party/FreeRTOS/Source/portable/GCC/ARM_CM3/port.c **** 
 236:Middlewares/Third_Party/FreeRTOS/Source/portable/GCC/ARM_CM3/port.c **** 	Artificially force an assert() to be triggered if configASSERT() is
 237:Middlewares/Third_Party/FreeRTOS/Source/portable/GCC/ARM_CM3/port.c **** 	defined, then stop here so application writers can catch the error. */
 238:Middlewares/Third_Party/FreeRTOS/Source/portable/GCC/ARM_CM3/port.c **** 	configASSERT( uxCriticalNesting == ~0UL );
 239:Middlewares/Third_Party/FreeRTOS/Source/portable/GCC/ARM_CM3/port.c **** 	portDISABLE_INTERRUPTS();
 240:Middlewares/Third_Party/FreeRTOS/Source/portable/GCC/ARM_CM3/port.c **** 	for( ;; );
 241:Middlewares/Third_Party/FreeRTOS/Source/portable/GCC/ARM_CM3/port.c **** }
 242:Middlewares/Third_Party/FreeRTOS/Source/portable/GCC/ARM_CM3/port.c **** /*-----------------------------------------------------------*/
 243:Middlewares/Third_Party/FreeRTOS/Source/portable/GCC/ARM_CM3/port.c **** 
 244:Middlewares/Third_Party/FreeRTOS/Source/portable/GCC/ARM_CM3/port.c **** void vPortSVCHandler( void )
 245:Middlewares/Third_Party/FreeRTOS/Source/portable/GCC/ARM_CM3/port.c **** {
 246:Middlewares/Third_Party/FreeRTOS/Source/portable/GCC/ARM_CM3/port.c **** 	__asm volatile (
 247:Middlewares/Third_Party/FreeRTOS/Source/portable/GCC/ARM_CM3/port.c **** 					"	ldr	r3, pxCurrentTCBConst2		\n" /* Restore the context. */
 248:Middlewares/Third_Party/FreeRTOS/Source/portable/GCC/ARM_CM3/port.c **** 					"	ldr r1, [r3]					\n" /* Use pxCurrentTCBConst to get the pxCurrentTCB address. */
 249:Middlewares/Third_Party/FreeRTOS/Source/portable/GCC/ARM_CM3/port.c **** 					"	ldr r0, [r1]					\n" /* The first item in pxCurrentTCB is the task top of stack. */
 250:Middlewares/Third_Party/FreeRTOS/Source/portable/GCC/ARM_CM3/port.c **** 					"	ldmia r0!, {r4-r11}				\n" /* Pop the registers that are not automatically saved on exceptio
 251:Middlewares/Third_Party/FreeRTOS/Source/portable/GCC/ARM_CM3/port.c **** 					"	msr psp, r0						\n" /* Restore the task stack pointer. */
 252:Middlewares/Third_Party/FreeRTOS/Source/portable/GCC/ARM_CM3/port.c **** 					"	isb								\n"
 253:Middlewares/Third_Party/FreeRTOS/Source/portable/GCC/ARM_CM3/port.c **** 					"	mov r0, #0 						\n"
 254:Middlewares/Third_Party/FreeRTOS/Source/portable/GCC/ARM_CM3/port.c **** 					"	msr	basepri, r0					\n"
 255:Middlewares/Third_Party/FreeRTOS/Source/portable/GCC/ARM_CM3/port.c **** 					"	orr r14, #0xd					\n"
 256:Middlewares/Third_Party/FreeRTOS/Source/portable/GCC/ARM_CM3/port.c **** 					"	bx r14							\n"
 257:Middlewares/Third_Party/FreeRTOS/Source/portable/GCC/ARM_CM3/port.c **** 					"									\n"
 258:Middlewares/Third_Party/FreeRTOS/Source/portable/GCC/ARM_CM3/port.c **** 					"	.align 2						\n"
 259:Middlewares/Third_Party/FreeRTOS/Source/portable/GCC/ARM_CM3/port.c **** 					"pxCurrentTCBConst2: .word pxCurrentTCB				\n"
 260:Middlewares/Third_Party/FreeRTOS/Source/portable/GCC/ARM_CM3/port.c **** 				);
 261:Middlewares/Third_Party/FreeRTOS/Source/portable/GCC/ARM_CM3/port.c **** }
 262:Middlewares/Third_Party/FreeRTOS/Source/portable/GCC/ARM_CM3/port.c **** /*-----------------------------------------------------------*/
ARM GAS  /tmp/cczGDbKf.s 			page 6


 263:Middlewares/Third_Party/FreeRTOS/Source/portable/GCC/ARM_CM3/port.c **** 
 264:Middlewares/Third_Party/FreeRTOS/Source/portable/GCC/ARM_CM3/port.c **** static void prvPortStartFirstTask( void )
 265:Middlewares/Third_Party/FreeRTOS/Source/portable/GCC/ARM_CM3/port.c **** {
  25              		.loc 1 265 0
  26              		.cfi_startproc
  27              		@ Naked Function: prologue and epilogue provided by programmer.
  28              		@ args = 0, pretend = 0, frame = 0
  29              		@ frame_needed = 0, uses_anonymous_args = 0
 266:Middlewares/Third_Party/FreeRTOS/Source/portable/GCC/ARM_CM3/port.c **** 	__asm volatile(
  30              		.loc 1 266 0
  31              		.syntax unified
  32              	@ 266 "Middlewares/Third_Party/FreeRTOS/Source/portable/GCC/ARM_CM3/port.c" 1
  33 0000 0648     		 ldr r0, =0xE000ED08 	
  34 0002 0068     	 ldr r0, [r0] 			
  35 0004 0068     	 ldr r0, [r0] 			
  36 0006 80F30888 	 msr msp, r0			
  37 000a 62B6     	 cpsie i				
  38 000c 61B6     	 cpsie f				
  39 000e BFF34F8F 	 dsb					
  40 0012 BFF36F8F 	 isb					
  41 0016 00DF     	 svc 0					
  42 0018 00BF     	 nop					
  43              	
  44              	@ 0 "" 2
 267:Middlewares/Third_Party/FreeRTOS/Source/portable/GCC/ARM_CM3/port.c **** 					" ldr r0, =0xE000ED08 	\n" /* Use the NVIC offset register to locate the stack. */
 268:Middlewares/Third_Party/FreeRTOS/Source/portable/GCC/ARM_CM3/port.c **** 					" ldr r0, [r0] 			\n"
 269:Middlewares/Third_Party/FreeRTOS/Source/portable/GCC/ARM_CM3/port.c **** 					" ldr r0, [r0] 			\n"
 270:Middlewares/Third_Party/FreeRTOS/Source/portable/GCC/ARM_CM3/port.c **** 					" msr msp, r0			\n" /* Set the msp back to the start of the stack. */
 271:Middlewares/Third_Party/FreeRTOS/Source/portable/GCC/ARM_CM3/port.c **** 					" cpsie i				\n" /* Globally enable interrupts. */
 272:Middlewares/Third_Party/FreeRTOS/Source/portable/GCC/ARM_CM3/port.c **** 					" cpsie f				\n"
 273:Middlewares/Third_Party/FreeRTOS/Source/portable/GCC/ARM_CM3/port.c **** 					" dsb					\n"
 274:Middlewares/Third_Party/FreeRTOS/Source/portable/GCC/ARM_CM3/port.c **** 					" isb					\n"
 275:Middlewares/Third_Party/FreeRTOS/Source/portable/GCC/ARM_CM3/port.c **** 					" svc 0					\n" /* System call to start first task. */
 276:Middlewares/Third_Party/FreeRTOS/Source/portable/GCC/ARM_CM3/port.c **** 					" nop					\n"
 277:Middlewares/Third_Party/FreeRTOS/Source/portable/GCC/ARM_CM3/port.c **** 				);
 278:Middlewares/Third_Party/FreeRTOS/Source/portable/GCC/ARM_CM3/port.c **** }
  45              		.loc 1 278 0
  46              		.thumb
  47              		.syntax unified
  48              		.cfi_endproc
  49              	.LFE4:
  51 001a 0000     		.section	.text.pxPortInitialiseStack,"ax",%progbits
  52              		.align	1
  53              		.global	pxPortInitialiseStack
  54              		.syntax unified
  55              		.thumb
  56              		.thumb_func
  57              		.fpu softvfp
  59              	pxPortInitialiseStack:
  60              	.LFB1:
 213:Middlewares/Third_Party/FreeRTOS/Source/portable/GCC/ARM_CM3/port.c **** 	/* Simulate the stack frame as it would be created by a context switch
  61              		.loc 1 213 0
  62              		.cfi_startproc
  63              		@ args = 0, pretend = 0, frame = 0
  64              		@ frame_needed = 0, uses_anonymous_args = 0
  65              		@ link register save eliminated.
  66              	.LVL0:
ARM GAS  /tmp/cczGDbKf.s 			page 7


 217:Middlewares/Third_Party/FreeRTOS/Source/portable/GCC/ARM_CM3/port.c **** 	pxTopOfStack--;
  67              		.loc 1 217 0
  68 0000 4FF08073 		mov	r3, #16777216
 219:Middlewares/Third_Party/FreeRTOS/Source/portable/GCC/ARM_CM3/port.c **** 	pxTopOfStack--;
  69              		.loc 1 219 0
  70 0004 00E90A00 		stmdb	r0, {r1, r3}
  71              	.LVL1:
 221:Middlewares/Third_Party/FreeRTOS/Source/portable/GCC/ARM_CM3/port.c **** 	pxTopOfStack -= 5;	/* R12, R3, R2 and R1. */
  72              		.loc 1 221 0
  73 0008 034B     		ldr	r3, .L3
 223:Middlewares/Third_Party/FreeRTOS/Source/portable/GCC/ARM_CM3/port.c **** 	pxTopOfStack -= 8;	/* R11, R10, R9, R8, R7, R6, R5 and R4. */
  74              		.loc 1 223 0
  75 000a 40F8202C 		str	r2, [r0, #-32]
 221:Middlewares/Third_Party/FreeRTOS/Source/portable/GCC/ARM_CM3/port.c **** 	pxTopOfStack -= 5;	/* R12, R3, R2 and R1. */
  76              		.loc 1 221 0
  77 000e 40F80C3C 		str	r3, [r0, #-12]
  78              	.LVL2:
 227:Middlewares/Third_Party/FreeRTOS/Source/portable/GCC/ARM_CM3/port.c **** /*-----------------------------------------------------------*/
  79              		.loc 1 227 0
  80 0012 4038     		subs	r0, r0, #64
  81              	.LVL3:
  82 0014 7047     		bx	lr
  83              	.L4:
  84 0016 00BF     		.align	2
  85              	.L3:
  86 0018 00000000 		.word	prvTaskExitError
  87              		.cfi_endproc
  88              	.LFE1:
  90              		.section	.text.SVC_Handler,"ax",%progbits
  91              		.align	1
  92              		.global	SVC_Handler
  93              		.syntax unified
  94              		.thumb
  95              		.thumb_func
  96              		.fpu softvfp
  98              	SVC_Handler:
  99              	.LFB3:
 245:Middlewares/Third_Party/FreeRTOS/Source/portable/GCC/ARM_CM3/port.c **** 	__asm volatile (
 100              		.loc 1 245 0
 101              		.cfi_startproc
 102              		@ Naked Function: prologue and epilogue provided by programmer.
 103              		@ args = 0, pretend = 0, frame = 0
 104              		@ frame_needed = 0, uses_anonymous_args = 0
 246:Middlewares/Third_Party/FreeRTOS/Source/portable/GCC/ARM_CM3/port.c **** 					"	ldr	r3, pxCurrentTCBConst2		\n" /* Restore the context. */
 105              		.loc 1 246 0
 106              		.syntax unified
 107              	@ 246 "Middlewares/Third_Party/FreeRTOS/Source/portable/GCC/ARM_CM3/port.c" 1
 108 0000 074B     			ldr	r3, pxCurrentTCBConst2		
 109 0002 1968     		ldr r1, [r3]					
 110 0004 0868     		ldr r0, [r1]					
 111 0006 B0E8F00F 		ldmia r0!, {r4-r11}				
 112 000a 80F30988 		msr psp, r0						
 113 000e BFF36F8F 		isb								
 114 0012 4FF00000 		mov r0, #0 						
 115 0016 80F31188 		msr	basepri, r0					
 116 001a 4EF00D0E 		orr r14, #0xd					
 117 001e 7047     		bx r14							
ARM GAS  /tmp/cczGDbKf.s 			page 8


 118              										
 119              		.align 2						
 120 0020 00000000 	pxCurrentTCBConst2: .word pxCurrentTCB				
 121              	
 122              	@ 0 "" 2
 261:Middlewares/Third_Party/FreeRTOS/Source/portable/GCC/ARM_CM3/port.c **** /*-----------------------------------------------------------*/
 123              		.loc 1 261 0
 124              		.thumb
 125              		.syntax unified
 126              		.cfi_endproc
 127              	.LFE3:
 129              		.section	.text.vPortYield,"ax",%progbits
 130              		.align	1
 131              		.global	vPortYield
 132              		.syntax unified
 133              		.thumb
 134              		.thumb_func
 135              		.fpu softvfp
 137              	vPortYield:
 138              	.LFB7:
 279:Middlewares/Third_Party/FreeRTOS/Source/portable/GCC/ARM_CM3/port.c **** /*-----------------------------------------------------------*/
 280:Middlewares/Third_Party/FreeRTOS/Source/portable/GCC/ARM_CM3/port.c **** 
 281:Middlewares/Third_Party/FreeRTOS/Source/portable/GCC/ARM_CM3/port.c **** /*
 282:Middlewares/Third_Party/FreeRTOS/Source/portable/GCC/ARM_CM3/port.c ****  * See header file for description.
 283:Middlewares/Third_Party/FreeRTOS/Source/portable/GCC/ARM_CM3/port.c ****  */
 284:Middlewares/Third_Party/FreeRTOS/Source/portable/GCC/ARM_CM3/port.c **** BaseType_t xPortStartScheduler( void )
 285:Middlewares/Third_Party/FreeRTOS/Source/portable/GCC/ARM_CM3/port.c **** {
 286:Middlewares/Third_Party/FreeRTOS/Source/portable/GCC/ARM_CM3/port.c **** 	/* configMAX_SYSCALL_INTERRUPT_PRIORITY must not be set to 0.
 287:Middlewares/Third_Party/FreeRTOS/Source/portable/GCC/ARM_CM3/port.c **** 	See http://www.FreeRTOS.org/RTOS-Cortex-M3-M4.html */
 288:Middlewares/Third_Party/FreeRTOS/Source/portable/GCC/ARM_CM3/port.c **** 	configASSERT( configMAX_SYSCALL_INTERRUPT_PRIORITY );
 289:Middlewares/Third_Party/FreeRTOS/Source/portable/GCC/ARM_CM3/port.c **** 
 290:Middlewares/Third_Party/FreeRTOS/Source/portable/GCC/ARM_CM3/port.c **** 	#if( configASSERT_DEFINED == 1 )
 291:Middlewares/Third_Party/FreeRTOS/Source/portable/GCC/ARM_CM3/port.c **** 	{
 292:Middlewares/Third_Party/FreeRTOS/Source/portable/GCC/ARM_CM3/port.c **** 		volatile uint32_t ulOriginalPriority;
 293:Middlewares/Third_Party/FreeRTOS/Source/portable/GCC/ARM_CM3/port.c **** 		volatile uint8_t * const pucFirstUserPriorityRegister = ( volatile uint8_t * const ) ( portNVIC_I
 294:Middlewares/Third_Party/FreeRTOS/Source/portable/GCC/ARM_CM3/port.c **** 		volatile uint8_t ucMaxPriorityValue;
 295:Middlewares/Third_Party/FreeRTOS/Source/portable/GCC/ARM_CM3/port.c **** 
 296:Middlewares/Third_Party/FreeRTOS/Source/portable/GCC/ARM_CM3/port.c **** 		/* Determine the maximum priority from which ISR safe FreeRTOS API
 297:Middlewares/Third_Party/FreeRTOS/Source/portable/GCC/ARM_CM3/port.c **** 		functions can be called.  ISR safe functions are those that end in
 298:Middlewares/Third_Party/FreeRTOS/Source/portable/GCC/ARM_CM3/port.c **** 		"FromISR".  FreeRTOS maintains separate thread and ISR API functions to
 299:Middlewares/Third_Party/FreeRTOS/Source/portable/GCC/ARM_CM3/port.c **** 		ensure interrupt entry is as fast and simple as possible.
 300:Middlewares/Third_Party/FreeRTOS/Source/portable/GCC/ARM_CM3/port.c **** 
 301:Middlewares/Third_Party/FreeRTOS/Source/portable/GCC/ARM_CM3/port.c **** 		Save the interrupt priority value that is about to be clobbered. */
 302:Middlewares/Third_Party/FreeRTOS/Source/portable/GCC/ARM_CM3/port.c **** 		ulOriginalPriority = *pucFirstUserPriorityRegister;
 303:Middlewares/Third_Party/FreeRTOS/Source/portable/GCC/ARM_CM3/port.c **** 
 304:Middlewares/Third_Party/FreeRTOS/Source/portable/GCC/ARM_CM3/port.c **** 		/* Determine the number of priority bits available.  First write to all
 305:Middlewares/Third_Party/FreeRTOS/Source/portable/GCC/ARM_CM3/port.c **** 		possible bits. */
 306:Middlewares/Third_Party/FreeRTOS/Source/portable/GCC/ARM_CM3/port.c **** 		*pucFirstUserPriorityRegister = portMAX_8_BIT_VALUE;
 307:Middlewares/Third_Party/FreeRTOS/Source/portable/GCC/ARM_CM3/port.c **** 
 308:Middlewares/Third_Party/FreeRTOS/Source/portable/GCC/ARM_CM3/port.c **** 		/* Read the value back to see how many bits stuck. */
 309:Middlewares/Third_Party/FreeRTOS/Source/portable/GCC/ARM_CM3/port.c **** 		ucMaxPriorityValue = *pucFirstUserPriorityRegister;
 310:Middlewares/Third_Party/FreeRTOS/Source/portable/GCC/ARM_CM3/port.c **** 
 311:Middlewares/Third_Party/FreeRTOS/Source/portable/GCC/ARM_CM3/port.c **** 		/* Use the same mask on the maximum system call priority. */
 312:Middlewares/Third_Party/FreeRTOS/Source/portable/GCC/ARM_CM3/port.c **** 		ucMaxSysCallPriority = configMAX_SYSCALL_INTERRUPT_PRIORITY & ucMaxPriorityValue;
 313:Middlewares/Third_Party/FreeRTOS/Source/portable/GCC/ARM_CM3/port.c **** 
 314:Middlewares/Third_Party/FreeRTOS/Source/portable/GCC/ARM_CM3/port.c **** 		/* Calculate the maximum acceptable priority group value for the number
 315:Middlewares/Third_Party/FreeRTOS/Source/portable/GCC/ARM_CM3/port.c **** 		of bits read back. */
ARM GAS  /tmp/cczGDbKf.s 			page 9


 316:Middlewares/Third_Party/FreeRTOS/Source/portable/GCC/ARM_CM3/port.c **** 		ulMaxPRIGROUPValue = portMAX_PRIGROUP_BITS;
 317:Middlewares/Third_Party/FreeRTOS/Source/portable/GCC/ARM_CM3/port.c **** 		while( ( ucMaxPriorityValue & portTOP_BIT_OF_BYTE ) == portTOP_BIT_OF_BYTE )
 318:Middlewares/Third_Party/FreeRTOS/Source/portable/GCC/ARM_CM3/port.c **** 		{
 319:Middlewares/Third_Party/FreeRTOS/Source/portable/GCC/ARM_CM3/port.c **** 			ulMaxPRIGROUPValue--;
 320:Middlewares/Third_Party/FreeRTOS/Source/portable/GCC/ARM_CM3/port.c **** 			ucMaxPriorityValue <<= ( uint8_t ) 0x01;
 321:Middlewares/Third_Party/FreeRTOS/Source/portable/GCC/ARM_CM3/port.c **** 		}
 322:Middlewares/Third_Party/FreeRTOS/Source/portable/GCC/ARM_CM3/port.c **** 
 323:Middlewares/Third_Party/FreeRTOS/Source/portable/GCC/ARM_CM3/port.c **** 		/* Shift the priority group value back to its position within the AIRCR
 324:Middlewares/Third_Party/FreeRTOS/Source/portable/GCC/ARM_CM3/port.c **** 		register. */
 325:Middlewares/Third_Party/FreeRTOS/Source/portable/GCC/ARM_CM3/port.c **** 		ulMaxPRIGROUPValue <<= portPRIGROUP_SHIFT;
 326:Middlewares/Third_Party/FreeRTOS/Source/portable/GCC/ARM_CM3/port.c **** 		ulMaxPRIGROUPValue &= portPRIORITY_GROUP_MASK;
 327:Middlewares/Third_Party/FreeRTOS/Source/portable/GCC/ARM_CM3/port.c **** 
 328:Middlewares/Third_Party/FreeRTOS/Source/portable/GCC/ARM_CM3/port.c **** 		/* Restore the clobbered interrupt priority register to its original
 329:Middlewares/Third_Party/FreeRTOS/Source/portable/GCC/ARM_CM3/port.c **** 		value. */
 330:Middlewares/Third_Party/FreeRTOS/Source/portable/GCC/ARM_CM3/port.c **** 		*pucFirstUserPriorityRegister = ulOriginalPriority;
 331:Middlewares/Third_Party/FreeRTOS/Source/portable/GCC/ARM_CM3/port.c **** 	}
 332:Middlewares/Third_Party/FreeRTOS/Source/portable/GCC/ARM_CM3/port.c **** 	#endif /* conifgASSERT_DEFINED */
 333:Middlewares/Third_Party/FreeRTOS/Source/portable/GCC/ARM_CM3/port.c **** 
 334:Middlewares/Third_Party/FreeRTOS/Source/portable/GCC/ARM_CM3/port.c **** 	/* Make PendSV and SysTick the lowest priority interrupts. */
 335:Middlewares/Third_Party/FreeRTOS/Source/portable/GCC/ARM_CM3/port.c **** 	portNVIC_SYSPRI2_REG |= portNVIC_PENDSV_PRI;
 336:Middlewares/Third_Party/FreeRTOS/Source/portable/GCC/ARM_CM3/port.c **** 	portNVIC_SYSPRI2_REG |= portNVIC_SYSTICK_PRI;
 337:Middlewares/Third_Party/FreeRTOS/Source/portable/GCC/ARM_CM3/port.c **** 
 338:Middlewares/Third_Party/FreeRTOS/Source/portable/GCC/ARM_CM3/port.c **** 	/* Start the timer that generates the tick ISR.  Interrupts are disabled
 339:Middlewares/Third_Party/FreeRTOS/Source/portable/GCC/ARM_CM3/port.c **** 	here already. */
 340:Middlewares/Third_Party/FreeRTOS/Source/portable/GCC/ARM_CM3/port.c **** 	vPortSetupTimerInterrupt();
 341:Middlewares/Third_Party/FreeRTOS/Source/portable/GCC/ARM_CM3/port.c **** 
 342:Middlewares/Third_Party/FreeRTOS/Source/portable/GCC/ARM_CM3/port.c **** 	/* Initialise the critical nesting count ready for the first task. */
 343:Middlewares/Third_Party/FreeRTOS/Source/portable/GCC/ARM_CM3/port.c **** 	uxCriticalNesting = 0;
 344:Middlewares/Third_Party/FreeRTOS/Source/portable/GCC/ARM_CM3/port.c **** 
 345:Middlewares/Third_Party/FreeRTOS/Source/portable/GCC/ARM_CM3/port.c **** 	/* Start the first task. */
 346:Middlewares/Third_Party/FreeRTOS/Source/portable/GCC/ARM_CM3/port.c **** 	prvPortStartFirstTask();
 347:Middlewares/Third_Party/FreeRTOS/Source/portable/GCC/ARM_CM3/port.c **** 
 348:Middlewares/Third_Party/FreeRTOS/Source/portable/GCC/ARM_CM3/port.c **** 	/* Should never get here as the tasks will now be executing!  Call the task
 349:Middlewares/Third_Party/FreeRTOS/Source/portable/GCC/ARM_CM3/port.c **** 	exit error function to prevent compiler warnings about a static function
 350:Middlewares/Third_Party/FreeRTOS/Source/portable/GCC/ARM_CM3/port.c **** 	not being called in the case that the application writer overrides this
 351:Middlewares/Third_Party/FreeRTOS/Source/portable/GCC/ARM_CM3/port.c **** 	functionality by defining configTASK_RETURN_ADDRESS. */
 352:Middlewares/Third_Party/FreeRTOS/Source/portable/GCC/ARM_CM3/port.c **** 	prvTaskExitError();
 353:Middlewares/Third_Party/FreeRTOS/Source/portable/GCC/ARM_CM3/port.c **** 
 354:Middlewares/Third_Party/FreeRTOS/Source/portable/GCC/ARM_CM3/port.c **** 	/* Should not get here! */
 355:Middlewares/Third_Party/FreeRTOS/Source/portable/GCC/ARM_CM3/port.c **** 	return 0;
 356:Middlewares/Third_Party/FreeRTOS/Source/portable/GCC/ARM_CM3/port.c **** }
 357:Middlewares/Third_Party/FreeRTOS/Source/portable/GCC/ARM_CM3/port.c **** /*-----------------------------------------------------------*/
 358:Middlewares/Third_Party/FreeRTOS/Source/portable/GCC/ARM_CM3/port.c **** 
 359:Middlewares/Third_Party/FreeRTOS/Source/portable/GCC/ARM_CM3/port.c **** void vPortEndScheduler( void )
 360:Middlewares/Third_Party/FreeRTOS/Source/portable/GCC/ARM_CM3/port.c **** {
 361:Middlewares/Third_Party/FreeRTOS/Source/portable/GCC/ARM_CM3/port.c **** 	/* Not implemented in ports where there is nothing to return to.
 362:Middlewares/Third_Party/FreeRTOS/Source/portable/GCC/ARM_CM3/port.c **** 	Artificially force an assert. */
 363:Middlewares/Third_Party/FreeRTOS/Source/portable/GCC/ARM_CM3/port.c **** 	configASSERT( uxCriticalNesting == 1000UL );
 364:Middlewares/Third_Party/FreeRTOS/Source/portable/GCC/ARM_CM3/port.c **** }
 365:Middlewares/Third_Party/FreeRTOS/Source/portable/GCC/ARM_CM3/port.c **** /*-----------------------------------------------------------*/
 366:Middlewares/Third_Party/FreeRTOS/Source/portable/GCC/ARM_CM3/port.c **** 
 367:Middlewares/Third_Party/FreeRTOS/Source/portable/GCC/ARM_CM3/port.c **** void vPortYield( void )
 368:Middlewares/Third_Party/FreeRTOS/Source/portable/GCC/ARM_CM3/port.c **** {
 139              		.loc 1 368 0
 140              		.cfi_startproc
 141              		@ args = 0, pretend = 0, frame = 0
 142              		@ frame_needed = 0, uses_anonymous_args = 0
ARM GAS  /tmp/cczGDbKf.s 			page 10


 143              		@ link register save eliminated.
 369:Middlewares/Third_Party/FreeRTOS/Source/portable/GCC/ARM_CM3/port.c **** 	/* Set a PendSV to request a context switch. */
 370:Middlewares/Third_Party/FreeRTOS/Source/portable/GCC/ARM_CM3/port.c **** 	portNVIC_INT_CTRL_REG = portNVIC_PENDSVSET_BIT;
 144              		.loc 1 370 0
 145 0000 4FF08052 		mov	r2, #268435456
 146 0004 034B     		ldr	r3, .L7
 147 0006 1A60     		str	r2, [r3]
 371:Middlewares/Third_Party/FreeRTOS/Source/portable/GCC/ARM_CM3/port.c **** 
 372:Middlewares/Third_Party/FreeRTOS/Source/portable/GCC/ARM_CM3/port.c **** 	/* Barriers are normally not required but do ensure the code is completely
 373:Middlewares/Third_Party/FreeRTOS/Source/portable/GCC/ARM_CM3/port.c **** 	within the specified behaviour for the architecture. */
 374:Middlewares/Third_Party/FreeRTOS/Source/portable/GCC/ARM_CM3/port.c **** 	__asm volatile( "dsb" );
 148              		.loc 1 374 0
 149              		.syntax unified
 150              	@ 374 "Middlewares/Third_Party/FreeRTOS/Source/portable/GCC/ARM_CM3/port.c" 1
 151 0008 BFF34F8F 		dsb
 152              	@ 0 "" 2
 375:Middlewares/Third_Party/FreeRTOS/Source/portable/GCC/ARM_CM3/port.c **** 	__asm volatile( "isb" );
 153              		.loc 1 375 0
 154              	@ 375 "Middlewares/Third_Party/FreeRTOS/Source/portable/GCC/ARM_CM3/port.c" 1
 155 000c BFF36F8F 		isb
 156              	@ 0 "" 2
 157              		.thumb
 158              		.syntax unified
 159 0010 7047     		bx	lr
 160              	.L8:
 161 0012 00BF     		.align	2
 162              	.L7:
 163 0014 04ED00E0 		.word	-536810236
 164              		.cfi_endproc
 165              	.LFE7:
 167              		.section	.text.ulPortSetInterruptMask,"ax",%progbits
 168              		.align	1
 169              		.global	ulPortSetInterruptMask
 170              		.syntax unified
 171              		.thumb
 172              		.thumb_func
 173              		.fpu softvfp
 175              	ulPortSetInterruptMask:
 176              	.LFB10:
 376:Middlewares/Third_Party/FreeRTOS/Source/portable/GCC/ARM_CM3/port.c **** }
 377:Middlewares/Third_Party/FreeRTOS/Source/portable/GCC/ARM_CM3/port.c **** /*-----------------------------------------------------------*/
 378:Middlewares/Third_Party/FreeRTOS/Source/portable/GCC/ARM_CM3/port.c **** 
 379:Middlewares/Third_Party/FreeRTOS/Source/portable/GCC/ARM_CM3/port.c **** void vPortEnterCritical( void )
 380:Middlewares/Third_Party/FreeRTOS/Source/portable/GCC/ARM_CM3/port.c **** {
 381:Middlewares/Third_Party/FreeRTOS/Source/portable/GCC/ARM_CM3/port.c **** 	portDISABLE_INTERRUPTS();
 382:Middlewares/Third_Party/FreeRTOS/Source/portable/GCC/ARM_CM3/port.c **** 	uxCriticalNesting++;
 383:Middlewares/Third_Party/FreeRTOS/Source/portable/GCC/ARM_CM3/port.c **** 	__asm volatile( "dsb" );
 384:Middlewares/Third_Party/FreeRTOS/Source/portable/GCC/ARM_CM3/port.c **** 	__asm volatile( "isb" );
 385:Middlewares/Third_Party/FreeRTOS/Source/portable/GCC/ARM_CM3/port.c **** 	
 386:Middlewares/Third_Party/FreeRTOS/Source/portable/GCC/ARM_CM3/port.c **** 	/* This is not the interrupt safe version of the enter critical function so
 387:Middlewares/Third_Party/FreeRTOS/Source/portable/GCC/ARM_CM3/port.c **** 	assert() if it is being called from an interrupt context.  Only API 
 388:Middlewares/Third_Party/FreeRTOS/Source/portable/GCC/ARM_CM3/port.c **** 	functions that end in "FromISR" can be used in an interrupt.  Only assert if
 389:Middlewares/Third_Party/FreeRTOS/Source/portable/GCC/ARM_CM3/port.c **** 	the critical nesting count is 1 to protect against recursive calls if the
 390:Middlewares/Third_Party/FreeRTOS/Source/portable/GCC/ARM_CM3/port.c **** 	assert function also uses a critical section. */
 391:Middlewares/Third_Party/FreeRTOS/Source/portable/GCC/ARM_CM3/port.c **** 	if( uxCriticalNesting == 1 )
 392:Middlewares/Third_Party/FreeRTOS/Source/portable/GCC/ARM_CM3/port.c **** 	{
 393:Middlewares/Third_Party/FreeRTOS/Source/portable/GCC/ARM_CM3/port.c **** 		configASSERT( ( portNVIC_INT_CTRL_REG & portVECTACTIVE_MASK ) == 0 );
ARM GAS  /tmp/cczGDbKf.s 			page 11


 394:Middlewares/Third_Party/FreeRTOS/Source/portable/GCC/ARM_CM3/port.c **** 	}
 395:Middlewares/Third_Party/FreeRTOS/Source/portable/GCC/ARM_CM3/port.c **** }
 396:Middlewares/Third_Party/FreeRTOS/Source/portable/GCC/ARM_CM3/port.c **** /*-----------------------------------------------------------*/
 397:Middlewares/Third_Party/FreeRTOS/Source/portable/GCC/ARM_CM3/port.c **** 
 398:Middlewares/Third_Party/FreeRTOS/Source/portable/GCC/ARM_CM3/port.c **** void vPortExitCritical( void )
 399:Middlewares/Third_Party/FreeRTOS/Source/portable/GCC/ARM_CM3/port.c **** {
 400:Middlewares/Third_Party/FreeRTOS/Source/portable/GCC/ARM_CM3/port.c **** 	configASSERT( uxCriticalNesting );
 401:Middlewares/Third_Party/FreeRTOS/Source/portable/GCC/ARM_CM3/port.c **** 	uxCriticalNesting--;
 402:Middlewares/Third_Party/FreeRTOS/Source/portable/GCC/ARM_CM3/port.c **** 	if( uxCriticalNesting == 0 )
 403:Middlewares/Third_Party/FreeRTOS/Source/portable/GCC/ARM_CM3/port.c **** 	{
 404:Middlewares/Third_Party/FreeRTOS/Source/portable/GCC/ARM_CM3/port.c **** 		portENABLE_INTERRUPTS();
 405:Middlewares/Third_Party/FreeRTOS/Source/portable/GCC/ARM_CM3/port.c **** 	}
 406:Middlewares/Third_Party/FreeRTOS/Source/portable/GCC/ARM_CM3/port.c **** }
 407:Middlewares/Third_Party/FreeRTOS/Source/portable/GCC/ARM_CM3/port.c **** /*-----------------------------------------------------------*/
 408:Middlewares/Third_Party/FreeRTOS/Source/portable/GCC/ARM_CM3/port.c **** 
 409:Middlewares/Third_Party/FreeRTOS/Source/portable/GCC/ARM_CM3/port.c **** __attribute__(( naked )) uint32_t ulPortSetInterruptMask( void )
 410:Middlewares/Third_Party/FreeRTOS/Source/portable/GCC/ARM_CM3/port.c **** {
 177              		.loc 1 410 0
 178              		.cfi_startproc
 179              		@ Naked Function: prologue and epilogue provided by programmer.
 180              		@ args = 0, pretend = 0, frame = 0
 181              		@ frame_needed = 0, uses_anonymous_args = 0
 411:Middlewares/Third_Party/FreeRTOS/Source/portable/GCC/ARM_CM3/port.c **** 	__asm volatile														\
 182              		.loc 1 411 0
 183              		.syntax unified
 184              	@ 411 "Middlewares/Third_Party/FreeRTOS/Source/portable/GCC/ARM_CM3/port.c" 1
 185 0000 EFF31180 			mrs r0, basepri											
 186 0004 4FF05001 		mov r1, #80												
 187 0008 81F31188 		msr basepri, r1											
 188 000c 7047     		bx lr													
 189              	
 190              	@ 0 "" 2
 412:Middlewares/Third_Party/FreeRTOS/Source/portable/GCC/ARM_CM3/port.c **** 	(																	\
 413:Middlewares/Third_Party/FreeRTOS/Source/portable/GCC/ARM_CM3/port.c **** 		"	mrs r0, basepri											\n" \
 414:Middlewares/Third_Party/FreeRTOS/Source/portable/GCC/ARM_CM3/port.c **** 		"	mov r1, %0												\n"	\
 415:Middlewares/Third_Party/FreeRTOS/Source/portable/GCC/ARM_CM3/port.c **** 		"	msr basepri, r1											\n" \
 416:Middlewares/Third_Party/FreeRTOS/Source/portable/GCC/ARM_CM3/port.c **** 		"	bx lr													\n" \
 417:Middlewares/Third_Party/FreeRTOS/Source/portable/GCC/ARM_CM3/port.c **** 		:: "i" ( configMAX_SYSCALL_INTERRUPT_PRIORITY ) : "r0", "r1"	\
 418:Middlewares/Third_Party/FreeRTOS/Source/portable/GCC/ARM_CM3/port.c **** 	);
 419:Middlewares/Third_Party/FreeRTOS/Source/portable/GCC/ARM_CM3/port.c **** 
 420:Middlewares/Third_Party/FreeRTOS/Source/portable/GCC/ARM_CM3/port.c **** 	/* This return will not be reached but is necessary to prevent compiler
 421:Middlewares/Third_Party/FreeRTOS/Source/portable/GCC/ARM_CM3/port.c **** 	warnings. */
 422:Middlewares/Third_Party/FreeRTOS/Source/portable/GCC/ARM_CM3/port.c **** 	return 0;
 423:Middlewares/Third_Party/FreeRTOS/Source/portable/GCC/ARM_CM3/port.c **** }
 191              		.loc 1 423 0
 192              		.thumb
 193              		.syntax unified
 194 000e 0020     		movs	r0, #0
 195              		.cfi_endproc
 196              	.LFE10:
 198              		.section	.text.prvTaskExitError,"ax",%progbits
 199              		.align	1
 200              		.syntax unified
 201              		.thumb
 202              		.thumb_func
 203              		.fpu softvfp
 205              	prvTaskExitError:
ARM GAS  /tmp/cczGDbKf.s 			page 12


 206              	.LFB2:
 231:Middlewares/Third_Party/FreeRTOS/Source/portable/GCC/ARM_CM3/port.c **** 	/* A function that implements a task must not exit or attempt to return to
 207              		.loc 1 231 0
 208              		.cfi_startproc
 209              		@ Volatile: function does not return.
 210              		@ args = 0, pretend = 0, frame = 0
 211              		@ frame_needed = 0, uses_anonymous_args = 0
 212 0000 08B5     		push	{r3, lr}
 213              	.LCFI0:
 214              		.cfi_def_cfa_offset 8
 215              		.cfi_offset 3, -8
 216              		.cfi_offset 14, -4
 238:Middlewares/Third_Party/FreeRTOS/Source/portable/GCC/ARM_CM3/port.c **** 	portDISABLE_INTERRUPTS();
 217              		.loc 1 238 0
 218 0002 054B     		ldr	r3, .L14
 219 0004 1B68     		ldr	r3, [r3]
 220 0006 0133     		adds	r3, r3, #1
 221 0008 02D0     		beq	.L11
 238:Middlewares/Third_Party/FreeRTOS/Source/portable/GCC/ARM_CM3/port.c **** 	portDISABLE_INTERRUPTS();
 222              		.loc 1 238 0 is_stmt 0 discriminator 1
 223 000a FFF7FEFF 		bl	ulPortSetInterruptMask
 224              	.LVL4:
 225              	.L12:
 226 000e FEE7     		b	.L12
 227              	.L11:
 239:Middlewares/Third_Party/FreeRTOS/Source/portable/GCC/ARM_CM3/port.c **** 	for( ;; );
 228              		.loc 1 239 0 is_stmt 1
 229 0010 FFF7FEFF 		bl	ulPortSetInterruptMask
 230              	.LVL5:
 231              	.L13:
 232 0014 FEE7     		b	.L13
 233              	.L15:
 234 0016 00BF     		.align	2
 235              	.L14:
 236 0018 00000000 		.word	.LANCHOR0
 237              		.cfi_endproc
 238              	.LFE2:
 240              		.section	.text.vPortEndScheduler,"ax",%progbits
 241              		.align	1
 242              		.global	vPortEndScheduler
 243              		.syntax unified
 244              		.thumb
 245              		.thumb_func
 246              		.fpu softvfp
 248              	vPortEndScheduler:
 249              	.LFB6:
 360:Middlewares/Third_Party/FreeRTOS/Source/portable/GCC/ARM_CM3/port.c **** 	/* Not implemented in ports where there is nothing to return to.
 250              		.loc 1 360 0
 251              		.cfi_startproc
 252              		@ args = 0, pretend = 0, frame = 0
 253              		@ frame_needed = 0, uses_anonymous_args = 0
 254 0000 08B5     		push	{r3, lr}
 255              	.LCFI1:
 256              		.cfi_def_cfa_offset 8
 257              		.cfi_offset 3, -8
 258              		.cfi_offset 14, -4
 363:Middlewares/Third_Party/FreeRTOS/Source/portable/GCC/ARM_CM3/port.c **** }
ARM GAS  /tmp/cczGDbKf.s 			page 13


 259              		.loc 1 363 0
 260 0002 044B     		ldr	r3, .L19
 261 0004 1B68     		ldr	r3, [r3]
 262 0006 B3F57A7F 		cmp	r3, #1000
 263 000a 02D0     		beq	.L16
 363:Middlewares/Third_Party/FreeRTOS/Source/portable/GCC/ARM_CM3/port.c **** }
 264              		.loc 1 363 0 is_stmt 0 discriminator 1
 265 000c FFF7FEFF 		bl	ulPortSetInterruptMask
 266              	.LVL6:
 267              	.L18:
 268 0010 FEE7     		b	.L18
 269              	.L16:
 270 0012 08BD     		pop	{r3, pc}
 271              	.L20:
 272              		.align	2
 273              	.L19:
 274 0014 00000000 		.word	.LANCHOR0
 275              		.cfi_endproc
 276              	.LFE6:
 278              		.section	.text.vPortEnterCritical,"ax",%progbits
 279              		.align	1
 280              		.global	vPortEnterCritical
 281              		.syntax unified
 282              		.thumb
 283              		.thumb_func
 284              		.fpu softvfp
 286              	vPortEnterCritical:
 287              	.LFB8:
 380:Middlewares/Third_Party/FreeRTOS/Source/portable/GCC/ARM_CM3/port.c **** 	portDISABLE_INTERRUPTS();
 288              		.loc 1 380 0 is_stmt 1
 289              		.cfi_startproc
 290              		@ args = 0, pretend = 0, frame = 0
 291              		@ frame_needed = 0, uses_anonymous_args = 0
 292 0000 08B5     		push	{r3, lr}
 293              	.LCFI2:
 294              		.cfi_def_cfa_offset 8
 295              		.cfi_offset 3, -8
 296              		.cfi_offset 14, -4
 381:Middlewares/Third_Party/FreeRTOS/Source/portable/GCC/ARM_CM3/port.c **** 	uxCriticalNesting++;
 297              		.loc 1 381 0
 298 0002 FFF7FEFF 		bl	ulPortSetInterruptMask
 299              	.LVL7:
 382:Middlewares/Third_Party/FreeRTOS/Source/portable/GCC/ARM_CM3/port.c **** 	__asm volatile( "dsb" );
 300              		.loc 1 382 0
 301 0006 094A     		ldr	r2, .L27
 302 0008 1368     		ldr	r3, [r2]
 303 000a 0133     		adds	r3, r3, #1
 304 000c 1360     		str	r3, [r2]
 383:Middlewares/Third_Party/FreeRTOS/Source/portable/GCC/ARM_CM3/port.c **** 	__asm volatile( "isb" );
 305              		.loc 1 383 0
 306              		.syntax unified
 307              	@ 383 "Middlewares/Third_Party/FreeRTOS/Source/portable/GCC/ARM_CM3/port.c" 1
 308 000e BFF34F8F 		dsb
 309              	@ 0 "" 2
 384:Middlewares/Third_Party/FreeRTOS/Source/portable/GCC/ARM_CM3/port.c **** 	
 310              		.loc 1 384 0
 311              	@ 384 "Middlewares/Third_Party/FreeRTOS/Source/portable/GCC/ARM_CM3/port.c" 1
ARM GAS  /tmp/cczGDbKf.s 			page 14


 312 0012 BFF36F8F 		isb
 313              	@ 0 "" 2
 391:Middlewares/Third_Party/FreeRTOS/Source/portable/GCC/ARM_CM3/port.c **** 	{
 314              		.loc 1 391 0
 315              		.thumb
 316              		.syntax unified
 317 0016 012B     		cmp	r3, #1
 318 0018 07D1     		bne	.L21
 393:Middlewares/Third_Party/FreeRTOS/Source/portable/GCC/ARM_CM3/port.c **** 	}
 319              		.loc 1 393 0
 320 001a 054B     		ldr	r3, .L27+4
 321 001c 1B68     		ldr	r3, [r3]
 322 001e 13F0FF0F 		tst	r3, #255
 323 0022 02D0     		beq	.L21
 393:Middlewares/Third_Party/FreeRTOS/Source/portable/GCC/ARM_CM3/port.c **** 	}
 324              		.loc 1 393 0 is_stmt 0 discriminator 1
 325 0024 FFF7FEFF 		bl	ulPortSetInterruptMask
 326              	.LVL8:
 327              	.L23:
 328 0028 FEE7     		b	.L23
 329              	.L21:
 330 002a 08BD     		pop	{r3, pc}
 331              	.L28:
 332              		.align	2
 333              	.L27:
 334 002c 00000000 		.word	.LANCHOR0
 335 0030 04ED00E0 		.word	-536810236
 336              		.cfi_endproc
 337              	.LFE8:
 339              		.section	.text.vPortClearInterruptMask,"ax",%progbits
 340              		.align	1
 341              		.global	vPortClearInterruptMask
 342              		.syntax unified
 343              		.thumb
 344              		.thumb_func
 345              		.fpu softvfp
 347              	vPortClearInterruptMask:
 348              	.LFB11:
 424:Middlewares/Third_Party/FreeRTOS/Source/portable/GCC/ARM_CM3/port.c **** /*-----------------------------------------------------------*/
 425:Middlewares/Third_Party/FreeRTOS/Source/portable/GCC/ARM_CM3/port.c **** 
 426:Middlewares/Third_Party/FreeRTOS/Source/portable/GCC/ARM_CM3/port.c **** __attribute__(( naked )) void vPortClearInterruptMask( uint32_t ulNewMaskValue )
 427:Middlewares/Third_Party/FreeRTOS/Source/portable/GCC/ARM_CM3/port.c **** {
 349              		.loc 1 427 0 is_stmt 1
 350              		.cfi_startproc
 351              		@ Naked Function: prologue and epilogue provided by programmer.
 352              		@ args = 0, pretend = 0, frame = 0
 353              		@ frame_needed = 0, uses_anonymous_args = 0
 354              	.LVL9:
 428:Middlewares/Third_Party/FreeRTOS/Source/portable/GCC/ARM_CM3/port.c **** 	__asm volatile													\
 355              		.loc 1 428 0
 356              		.syntax unified
 357              	@ 428 "Middlewares/Third_Party/FreeRTOS/Source/portable/GCC/ARM_CM3/port.c" 1
 358 0000 80F31188 			msr basepri, r0										
 359 0004 7047     		bx lr												
 360              	
 361              	@ 0 "" 2
 362              	.LVL10:
ARM GAS  /tmp/cczGDbKf.s 			page 15


 429:Middlewares/Third_Party/FreeRTOS/Source/portable/GCC/ARM_CM3/port.c **** 	(																\
 430:Middlewares/Third_Party/FreeRTOS/Source/portable/GCC/ARM_CM3/port.c **** 		"	msr basepri, r0										\n"	\
 431:Middlewares/Third_Party/FreeRTOS/Source/portable/GCC/ARM_CM3/port.c **** 		"	bx lr												\n" \
 432:Middlewares/Third_Party/FreeRTOS/Source/portable/GCC/ARM_CM3/port.c **** 		:::"r0"														\
 433:Middlewares/Third_Party/FreeRTOS/Source/portable/GCC/ARM_CM3/port.c **** 	);
 434:Middlewares/Third_Party/FreeRTOS/Source/portable/GCC/ARM_CM3/port.c **** 
 435:Middlewares/Third_Party/FreeRTOS/Source/portable/GCC/ARM_CM3/port.c **** 	/* Just to avoid compiler warnings. */
 436:Middlewares/Third_Party/FreeRTOS/Source/portable/GCC/ARM_CM3/port.c **** 	( void ) ulNewMaskValue;
 437:Middlewares/Third_Party/FreeRTOS/Source/portable/GCC/ARM_CM3/port.c **** }
 363              		.loc 1 437 0
 364              		.thumb
 365              		.syntax unified
 366              		.cfi_endproc
 367              	.LFE11:
 369              		.section	.text.vPortExitCritical,"ax",%progbits
 370              		.align	1
 371              		.global	vPortExitCritical
 372              		.syntax unified
 373              		.thumb
 374              		.thumb_func
 375              		.fpu softvfp
 377              	vPortExitCritical:
 378              	.LFB9:
 399:Middlewares/Third_Party/FreeRTOS/Source/portable/GCC/ARM_CM3/port.c **** 	configASSERT( uxCriticalNesting );
 379              		.loc 1 399 0
 380              		.cfi_startproc
 381              		@ args = 0, pretend = 0, frame = 0
 382              		@ frame_needed = 0, uses_anonymous_args = 0
 383 0000 08B5     		push	{r3, lr}
 384              	.LCFI3:
 385              		.cfi_def_cfa_offset 8
 386              		.cfi_offset 3, -8
 387              		.cfi_offset 14, -4
 400:Middlewares/Third_Party/FreeRTOS/Source/portable/GCC/ARM_CM3/port.c **** 	uxCriticalNesting--;
 388              		.loc 1 400 0
 389 0002 074B     		ldr	r3, .L34
 390 0004 1868     		ldr	r0, [r3]
 391 0006 10B9     		cbnz	r0, .L31
 400:Middlewares/Third_Party/FreeRTOS/Source/portable/GCC/ARM_CM3/port.c **** 	uxCriticalNesting--;
 392              		.loc 1 400 0 is_stmt 0 discriminator 1
 393 0008 FFF7FEFF 		bl	ulPortSetInterruptMask
 394              	.LVL11:
 395              	.L32:
 396 000c FEE7     		b	.L32
 397              	.L31:
 401:Middlewares/Third_Party/FreeRTOS/Source/portable/GCC/ARM_CM3/port.c **** 	if( uxCriticalNesting == 0 )
 398              		.loc 1 401 0 is_stmt 1
 399 000e 0138     		subs	r0, r0, #1
 400 0010 1860     		str	r0, [r3]
 402:Middlewares/Third_Party/FreeRTOS/Source/portable/GCC/ARM_CM3/port.c **** 	{
 401              		.loc 1 402 0
 402 0012 18B9     		cbnz	r0, .L30
 406:Middlewares/Third_Party/FreeRTOS/Source/portable/GCC/ARM_CM3/port.c **** /*-----------------------------------------------------------*/
 403              		.loc 1 406 0
 404 0014 BDE80840 		pop	{r3, lr}
 405              	.LCFI4:
 406              		.cfi_remember_state
ARM GAS  /tmp/cczGDbKf.s 			page 16


 407              		.cfi_restore 14
 408              		.cfi_restore 3
 409              		.cfi_def_cfa_offset 0
 404:Middlewares/Third_Party/FreeRTOS/Source/portable/GCC/ARM_CM3/port.c **** 	}
 410              		.loc 1 404 0
 411 0018 FFF7FEBF 		b	vPortClearInterruptMask
 412              	.LVL12:
 413              	.L30:
 414              	.LCFI5:
 415              		.cfi_restore_state
 416 001c 08BD     		pop	{r3, pc}
 417              	.L35:
 418 001e 00BF     		.align	2
 419              	.L34:
 420 0020 00000000 		.word	.LANCHOR0
 421              		.cfi_endproc
 422              	.LFE9:
 424              		.section	.text.PendSV_Handler,"ax",%progbits
 425              		.align	1
 426              		.global	PendSV_Handler
 427              		.syntax unified
 428              		.thumb
 429              		.thumb_func
 430              		.fpu softvfp
 432              	PendSV_Handler:
 433              	.LFB12:
 438:Middlewares/Third_Party/FreeRTOS/Source/portable/GCC/ARM_CM3/port.c **** /*-----------------------------------------------------------*/
 439:Middlewares/Third_Party/FreeRTOS/Source/portable/GCC/ARM_CM3/port.c **** 
 440:Middlewares/Third_Party/FreeRTOS/Source/portable/GCC/ARM_CM3/port.c **** void xPortPendSVHandler( void )
 441:Middlewares/Third_Party/FreeRTOS/Source/portable/GCC/ARM_CM3/port.c **** {
 434              		.loc 1 441 0
 435              		.cfi_startproc
 436              		@ Naked Function: prologue and epilogue provided by programmer.
 437              		@ args = 0, pretend = 0, frame = 0
 438              		@ frame_needed = 0, uses_anonymous_args = 0
 442:Middlewares/Third_Party/FreeRTOS/Source/portable/GCC/ARM_CM3/port.c **** 	/* This is a naked function. */
 443:Middlewares/Third_Party/FreeRTOS/Source/portable/GCC/ARM_CM3/port.c **** 
 444:Middlewares/Third_Party/FreeRTOS/Source/portable/GCC/ARM_CM3/port.c **** 	__asm volatile
 439              		.loc 1 444 0
 440              		.syntax unified
 441              	@ 444 "Middlewares/Third_Party/FreeRTOS/Source/portable/GCC/ARM_CM3/port.c" 1
 442 0000 EFF30980 			mrs r0, psp							
 443 0004 BFF36F8F 		isb									
 444              											
 445 0008 0D4B     		ldr	r3, pxCurrentTCBConst			
 446 000a 1A68     		ldr	r2, [r3]						
 447              											
 448 000c 20E9F00F 		stmdb r0!, {r4-r11}					
 449 0010 1060     		str r0, [r2]						
 450              											
 451 0012 2DE90840 		stmdb sp!, {r3, r14}				
 452 0016 4FF05000 		mov r0, #80							
 453 001a 80F31188 		msr basepri, r0						
 454 001e FFF7FEFF 		bl vTaskSwitchContext				
 455 0022 4FF00000 		mov r0, #0							
 456 0026 80F31188 		msr basepri, r0						
 457 002a BDE80840 		ldmia sp!, {r3, r14}				
ARM GAS  /tmp/cczGDbKf.s 			page 17


 458              											
 459 002e 1968     		ldr r1, [r3]						
 460 0030 0868     		ldr r0, [r1]						
 461 0032 B0E8F00F 		ldmia r0!, {r4-r11}					
 462 0036 80F30988 		msr psp, r0							
 463 003a BFF36F8F 		isb									
 464 003e 7047     		bx r14								
 465              											
 466              		.align 2							
 467 0040 00000000 	pxCurrentTCBConst: .word pxCurrentTCB	
 468              	
 469              	@ 0 "" 2
 445:Middlewares/Third_Party/FreeRTOS/Source/portable/GCC/ARM_CM3/port.c **** 	(
 446:Middlewares/Third_Party/FreeRTOS/Source/portable/GCC/ARM_CM3/port.c **** 	"	mrs r0, psp							\n"
 447:Middlewares/Third_Party/FreeRTOS/Source/portable/GCC/ARM_CM3/port.c **** 	"	isb									\n"
 448:Middlewares/Third_Party/FreeRTOS/Source/portable/GCC/ARM_CM3/port.c **** 	"										\n"
 449:Middlewares/Third_Party/FreeRTOS/Source/portable/GCC/ARM_CM3/port.c **** 	"	ldr	r3, pxCurrentTCBConst			\n" /* Get the location of the current TCB. */
 450:Middlewares/Third_Party/FreeRTOS/Source/portable/GCC/ARM_CM3/port.c **** 	"	ldr	r2, [r3]						\n"
 451:Middlewares/Third_Party/FreeRTOS/Source/portable/GCC/ARM_CM3/port.c **** 	"										\n"
 452:Middlewares/Third_Party/FreeRTOS/Source/portable/GCC/ARM_CM3/port.c **** 	"	stmdb r0!, {r4-r11}					\n" /* Save the remaining registers. */
 453:Middlewares/Third_Party/FreeRTOS/Source/portable/GCC/ARM_CM3/port.c **** 	"	str r0, [r2]						\n" /* Save the new top of stack into the first member of the TCB. */
 454:Middlewares/Third_Party/FreeRTOS/Source/portable/GCC/ARM_CM3/port.c **** 	"										\n"
 455:Middlewares/Third_Party/FreeRTOS/Source/portable/GCC/ARM_CM3/port.c **** 	"	stmdb sp!, {r3, r14}				\n"
 456:Middlewares/Third_Party/FreeRTOS/Source/portable/GCC/ARM_CM3/port.c **** 	"	mov r0, %0							\n"
 457:Middlewares/Third_Party/FreeRTOS/Source/portable/GCC/ARM_CM3/port.c **** 	"	msr basepri, r0						\n"
 458:Middlewares/Third_Party/FreeRTOS/Source/portable/GCC/ARM_CM3/port.c **** 	"	bl vTaskSwitchContext				\n"
 459:Middlewares/Third_Party/FreeRTOS/Source/portable/GCC/ARM_CM3/port.c **** 	"	mov r0, #0							\n"
 460:Middlewares/Third_Party/FreeRTOS/Source/portable/GCC/ARM_CM3/port.c **** 	"	msr basepri, r0						\n"
 461:Middlewares/Third_Party/FreeRTOS/Source/portable/GCC/ARM_CM3/port.c **** 	"	ldmia sp!, {r3, r14}				\n"
 462:Middlewares/Third_Party/FreeRTOS/Source/portable/GCC/ARM_CM3/port.c **** 	"										\n"	/* Restore the context, including the critical nesting count. */
 463:Middlewares/Third_Party/FreeRTOS/Source/portable/GCC/ARM_CM3/port.c **** 	"	ldr r1, [r3]						\n"
 464:Middlewares/Third_Party/FreeRTOS/Source/portable/GCC/ARM_CM3/port.c **** 	"	ldr r0, [r1]						\n" /* The first item in pxCurrentTCB is the task top of stack. */
 465:Middlewares/Third_Party/FreeRTOS/Source/portable/GCC/ARM_CM3/port.c **** 	"	ldmia r0!, {r4-r11}					\n" /* Pop the registers. */
 466:Middlewares/Third_Party/FreeRTOS/Source/portable/GCC/ARM_CM3/port.c **** 	"	msr psp, r0							\n"
 467:Middlewares/Third_Party/FreeRTOS/Source/portable/GCC/ARM_CM3/port.c **** 	"	isb									\n"
 468:Middlewares/Third_Party/FreeRTOS/Source/portable/GCC/ARM_CM3/port.c **** 	"	bx r14								\n"
 469:Middlewares/Third_Party/FreeRTOS/Source/portable/GCC/ARM_CM3/port.c **** 	"										\n"
 470:Middlewares/Third_Party/FreeRTOS/Source/portable/GCC/ARM_CM3/port.c **** 	"	.align 2							\n"
 471:Middlewares/Third_Party/FreeRTOS/Source/portable/GCC/ARM_CM3/port.c **** 	"pxCurrentTCBConst: .word pxCurrentTCB	\n"
 472:Middlewares/Third_Party/FreeRTOS/Source/portable/GCC/ARM_CM3/port.c **** 	::"i"(configMAX_SYSCALL_INTERRUPT_PRIORITY)
 473:Middlewares/Third_Party/FreeRTOS/Source/portable/GCC/ARM_CM3/port.c **** 	);
 474:Middlewares/Third_Party/FreeRTOS/Source/portable/GCC/ARM_CM3/port.c **** }
 470              		.loc 1 474 0
 471              		.thumb
 472              		.syntax unified
 473              		.cfi_endproc
 474              	.LFE12:
 476              		.section	.text.xPortSysTickHandler,"ax",%progbits
 477              		.align	1
 478              		.global	xPortSysTickHandler
 479              		.syntax unified
 480              		.thumb
 481              		.thumb_func
 482              		.fpu softvfp
 484              	xPortSysTickHandler:
 485              	.LFB13:
 475:Middlewares/Third_Party/FreeRTOS/Source/portable/GCC/ARM_CM3/port.c **** /*-----------------------------------------------------------*/
ARM GAS  /tmp/cczGDbKf.s 			page 18


 476:Middlewares/Third_Party/FreeRTOS/Source/portable/GCC/ARM_CM3/port.c **** 
 477:Middlewares/Third_Party/FreeRTOS/Source/portable/GCC/ARM_CM3/port.c **** void xPortSysTickHandler( void )
 478:Middlewares/Third_Party/FreeRTOS/Source/portable/GCC/ARM_CM3/port.c **** {
 486              		.loc 1 478 0
 487              		.cfi_startproc
 488              		@ args = 0, pretend = 0, frame = 0
 489              		@ frame_needed = 0, uses_anonymous_args = 0
 490 0000 08B5     		push	{r3, lr}
 491              	.LCFI6:
 492              		.cfi_def_cfa_offset 8
 493              		.cfi_offset 3, -8
 494              		.cfi_offset 14, -4
 479:Middlewares/Third_Party/FreeRTOS/Source/portable/GCC/ARM_CM3/port.c **** 	/* The SysTick runs at the lowest interrupt priority, so when this interrupt
 480:Middlewares/Third_Party/FreeRTOS/Source/portable/GCC/ARM_CM3/port.c **** 	executes all interrupts must be unmasked.  There is therefore no need to
 481:Middlewares/Third_Party/FreeRTOS/Source/portable/GCC/ARM_CM3/port.c **** 	save and then restore the interrupt mask value as its value is already
 482:Middlewares/Third_Party/FreeRTOS/Source/portable/GCC/ARM_CM3/port.c **** 	known. */
 483:Middlewares/Third_Party/FreeRTOS/Source/portable/GCC/ARM_CM3/port.c **** 	( void ) portSET_INTERRUPT_MASK_FROM_ISR();
 495              		.loc 1 483 0
 496 0002 FFF7FEFF 		bl	ulPortSetInterruptMask
 497              	.LVL13:
 484:Middlewares/Third_Party/FreeRTOS/Source/portable/GCC/ARM_CM3/port.c **** 	{
 485:Middlewares/Third_Party/FreeRTOS/Source/portable/GCC/ARM_CM3/port.c **** 		/* Increment the RTOS tick. */
 486:Middlewares/Third_Party/FreeRTOS/Source/portable/GCC/ARM_CM3/port.c **** 		if( xTaskIncrementTick() != pdFALSE )
 498              		.loc 1 486 0
 499 0006 FFF7FEFF 		bl	xTaskIncrementTick
 500              	.LVL14:
 501 000a 18B1     		cbz	r0, .L38
 487:Middlewares/Third_Party/FreeRTOS/Source/portable/GCC/ARM_CM3/port.c **** 		{
 488:Middlewares/Third_Party/FreeRTOS/Source/portable/GCC/ARM_CM3/port.c **** 			/* A context switch is required.  Context switching is performed in
 489:Middlewares/Third_Party/FreeRTOS/Source/portable/GCC/ARM_CM3/port.c **** 			the PendSV interrupt.  Pend the PendSV interrupt. */
 490:Middlewares/Third_Party/FreeRTOS/Source/portable/GCC/ARM_CM3/port.c **** 			portNVIC_INT_CTRL_REG = portNVIC_PENDSVSET_BIT;
 502              		.loc 1 490 0
 503 000c 4FF08052 		mov	r2, #268435456
 504 0010 034B     		ldr	r3, .L42
 505 0012 1A60     		str	r2, [r3]
 506              	.L38:
 491:Middlewares/Third_Party/FreeRTOS/Source/portable/GCC/ARM_CM3/port.c **** 		}
 492:Middlewares/Third_Party/FreeRTOS/Source/portable/GCC/ARM_CM3/port.c **** 	}
 493:Middlewares/Third_Party/FreeRTOS/Source/portable/GCC/ARM_CM3/port.c **** 	portCLEAR_INTERRUPT_MASK_FROM_ISR( 0 );
 507              		.loc 1 493 0
 508 0014 0020     		movs	r0, #0
 494:Middlewares/Third_Party/FreeRTOS/Source/portable/GCC/ARM_CM3/port.c **** }
 509              		.loc 1 494 0
 510 0016 BDE80840 		pop	{r3, lr}
 511              	.LCFI7:
 512              		.cfi_restore 14
 513              		.cfi_restore 3
 514              		.cfi_def_cfa_offset 0
 493:Middlewares/Third_Party/FreeRTOS/Source/portable/GCC/ARM_CM3/port.c **** }
 515              		.loc 1 493 0
 516 001a FFF7FEBF 		b	vPortClearInterruptMask
 517              	.LVL15:
 518              	.L43:
 519 001e 00BF     		.align	2
 520              	.L42:
 521 0020 04ED00E0 		.word	-536810236
 522              		.cfi_endproc
ARM GAS  /tmp/cczGDbKf.s 			page 19


 523              	.LFE13:
 525              		.section	.text.vPortSetupTimerInterrupt,"ax",%progbits
 526              		.align	1
 527              		.weak	vPortSetupTimerInterrupt
 528              		.syntax unified
 529              		.thumb
 530              		.thumb_func
 531              		.fpu softvfp
 533              	vPortSetupTimerInterrupt:
 534              	.LFB14:
 495:Middlewares/Third_Party/FreeRTOS/Source/portable/GCC/ARM_CM3/port.c **** /*-----------------------------------------------------------*/
 496:Middlewares/Third_Party/FreeRTOS/Source/portable/GCC/ARM_CM3/port.c **** 
 497:Middlewares/Third_Party/FreeRTOS/Source/portable/GCC/ARM_CM3/port.c **** #if configUSE_TICKLESS_IDLE == 1
 498:Middlewares/Third_Party/FreeRTOS/Source/portable/GCC/ARM_CM3/port.c **** 
 499:Middlewares/Third_Party/FreeRTOS/Source/portable/GCC/ARM_CM3/port.c **** 	__attribute__((weak)) void vPortSuppressTicksAndSleep( TickType_t xExpectedIdleTime )
 500:Middlewares/Third_Party/FreeRTOS/Source/portable/GCC/ARM_CM3/port.c **** 	{
 501:Middlewares/Third_Party/FreeRTOS/Source/portable/GCC/ARM_CM3/port.c **** 	uint32_t ulReloadValue, ulCompleteTickPeriods, ulCompletedSysTickDecrements, ulSysTickCTRL;
 502:Middlewares/Third_Party/FreeRTOS/Source/portable/GCC/ARM_CM3/port.c **** 	TickType_t xModifiableIdleTime;
 503:Middlewares/Third_Party/FreeRTOS/Source/portable/GCC/ARM_CM3/port.c **** 
 504:Middlewares/Third_Party/FreeRTOS/Source/portable/GCC/ARM_CM3/port.c **** 		/* Make sure the SysTick reload value does not overflow the counter. */
 505:Middlewares/Third_Party/FreeRTOS/Source/portable/GCC/ARM_CM3/port.c **** 		if( xExpectedIdleTime > xMaximumPossibleSuppressedTicks )
 506:Middlewares/Third_Party/FreeRTOS/Source/portable/GCC/ARM_CM3/port.c **** 		{
 507:Middlewares/Third_Party/FreeRTOS/Source/portable/GCC/ARM_CM3/port.c **** 			xExpectedIdleTime = xMaximumPossibleSuppressedTicks;
 508:Middlewares/Third_Party/FreeRTOS/Source/portable/GCC/ARM_CM3/port.c **** 		}
 509:Middlewares/Third_Party/FreeRTOS/Source/portable/GCC/ARM_CM3/port.c **** 
 510:Middlewares/Third_Party/FreeRTOS/Source/portable/GCC/ARM_CM3/port.c **** 		/* Stop the SysTick momentarily.  The time the SysTick is stopped for
 511:Middlewares/Third_Party/FreeRTOS/Source/portable/GCC/ARM_CM3/port.c **** 		is accounted for as best it can be, but using the tickless mode will
 512:Middlewares/Third_Party/FreeRTOS/Source/portable/GCC/ARM_CM3/port.c **** 		inevitably result in some tiny drift of the time maintained by the
 513:Middlewares/Third_Party/FreeRTOS/Source/portable/GCC/ARM_CM3/port.c **** 		kernel with respect to calendar time. */
 514:Middlewares/Third_Party/FreeRTOS/Source/portable/GCC/ARM_CM3/port.c **** 		portNVIC_SYSTICK_CTRL_REG &= ~portNVIC_SYSTICK_ENABLE_BIT;
 515:Middlewares/Third_Party/FreeRTOS/Source/portable/GCC/ARM_CM3/port.c **** 
 516:Middlewares/Third_Party/FreeRTOS/Source/portable/GCC/ARM_CM3/port.c **** 		/* Calculate the reload value required to wait xExpectedIdleTime
 517:Middlewares/Third_Party/FreeRTOS/Source/portable/GCC/ARM_CM3/port.c **** 		tick periods.  -1 is used because this code will execute part way
 518:Middlewares/Third_Party/FreeRTOS/Source/portable/GCC/ARM_CM3/port.c **** 		through one of the tick periods. */
 519:Middlewares/Third_Party/FreeRTOS/Source/portable/GCC/ARM_CM3/port.c **** 		ulReloadValue = portNVIC_SYSTICK_CURRENT_VALUE_REG + ( ulTimerCountsForOneTick * ( xExpectedIdleT
 520:Middlewares/Third_Party/FreeRTOS/Source/portable/GCC/ARM_CM3/port.c **** 		if( ulReloadValue > ulStoppedTimerCompensation )
 521:Middlewares/Third_Party/FreeRTOS/Source/portable/GCC/ARM_CM3/port.c **** 		{
 522:Middlewares/Third_Party/FreeRTOS/Source/portable/GCC/ARM_CM3/port.c **** 			ulReloadValue -= ulStoppedTimerCompensation;
 523:Middlewares/Third_Party/FreeRTOS/Source/portable/GCC/ARM_CM3/port.c **** 		}
 524:Middlewares/Third_Party/FreeRTOS/Source/portable/GCC/ARM_CM3/port.c **** 
 525:Middlewares/Third_Party/FreeRTOS/Source/portable/GCC/ARM_CM3/port.c **** 		/* Enter a critical section but don't use the taskENTER_CRITICAL()
 526:Middlewares/Third_Party/FreeRTOS/Source/portable/GCC/ARM_CM3/port.c **** 		method as that will mask interrupts that should exit sleep mode. */
 527:Middlewares/Third_Party/FreeRTOS/Source/portable/GCC/ARM_CM3/port.c **** 		__asm volatile( "cpsid i" );
 528:Middlewares/Third_Party/FreeRTOS/Source/portable/GCC/ARM_CM3/port.c **** 
 529:Middlewares/Third_Party/FreeRTOS/Source/portable/GCC/ARM_CM3/port.c **** 		/* If a context switch is pending or a task is waiting for the scheduler
 530:Middlewares/Third_Party/FreeRTOS/Source/portable/GCC/ARM_CM3/port.c **** 		to be unsuspended then abandon the low power entry. */
 531:Middlewares/Third_Party/FreeRTOS/Source/portable/GCC/ARM_CM3/port.c **** 		if( eTaskConfirmSleepModeStatus() == eAbortSleep )
 532:Middlewares/Third_Party/FreeRTOS/Source/portable/GCC/ARM_CM3/port.c **** 		{
 533:Middlewares/Third_Party/FreeRTOS/Source/portable/GCC/ARM_CM3/port.c **** 			/* Restart from whatever is left in the count register to complete
 534:Middlewares/Third_Party/FreeRTOS/Source/portable/GCC/ARM_CM3/port.c **** 			this tick period. */
 535:Middlewares/Third_Party/FreeRTOS/Source/portable/GCC/ARM_CM3/port.c **** 			portNVIC_SYSTICK_LOAD_REG = portNVIC_SYSTICK_CURRENT_VALUE_REG;
 536:Middlewares/Third_Party/FreeRTOS/Source/portable/GCC/ARM_CM3/port.c **** 
 537:Middlewares/Third_Party/FreeRTOS/Source/portable/GCC/ARM_CM3/port.c **** 			/* Restart SysTick. */
 538:Middlewares/Third_Party/FreeRTOS/Source/portable/GCC/ARM_CM3/port.c **** 			portNVIC_SYSTICK_CTRL_REG |= portNVIC_SYSTICK_ENABLE_BIT;
 539:Middlewares/Third_Party/FreeRTOS/Source/portable/GCC/ARM_CM3/port.c **** 
 540:Middlewares/Third_Party/FreeRTOS/Source/portable/GCC/ARM_CM3/port.c **** 			/* Reset the reload register to the value required for normal tick
 541:Middlewares/Third_Party/FreeRTOS/Source/portable/GCC/ARM_CM3/port.c **** 			periods. */
ARM GAS  /tmp/cczGDbKf.s 			page 20


 542:Middlewares/Third_Party/FreeRTOS/Source/portable/GCC/ARM_CM3/port.c **** 			portNVIC_SYSTICK_LOAD_REG = ulTimerCountsForOneTick - 1UL;
 543:Middlewares/Third_Party/FreeRTOS/Source/portable/GCC/ARM_CM3/port.c **** 
 544:Middlewares/Third_Party/FreeRTOS/Source/portable/GCC/ARM_CM3/port.c **** 			/* Re-enable interrupts - see comments above the cpsid instruction()
 545:Middlewares/Third_Party/FreeRTOS/Source/portable/GCC/ARM_CM3/port.c **** 			above. */
 546:Middlewares/Third_Party/FreeRTOS/Source/portable/GCC/ARM_CM3/port.c **** 			__asm volatile( "cpsie i" );
 547:Middlewares/Third_Party/FreeRTOS/Source/portable/GCC/ARM_CM3/port.c **** 		}
 548:Middlewares/Third_Party/FreeRTOS/Source/portable/GCC/ARM_CM3/port.c **** 		else
 549:Middlewares/Third_Party/FreeRTOS/Source/portable/GCC/ARM_CM3/port.c **** 		{
 550:Middlewares/Third_Party/FreeRTOS/Source/portable/GCC/ARM_CM3/port.c **** 			/* Set the new reload value. */
 551:Middlewares/Third_Party/FreeRTOS/Source/portable/GCC/ARM_CM3/port.c **** 			portNVIC_SYSTICK_LOAD_REG = ulReloadValue;
 552:Middlewares/Third_Party/FreeRTOS/Source/portable/GCC/ARM_CM3/port.c **** 
 553:Middlewares/Third_Party/FreeRTOS/Source/portable/GCC/ARM_CM3/port.c **** 			/* Clear the SysTick count flag and set the count value back to
 554:Middlewares/Third_Party/FreeRTOS/Source/portable/GCC/ARM_CM3/port.c **** 			zero. */
 555:Middlewares/Third_Party/FreeRTOS/Source/portable/GCC/ARM_CM3/port.c **** 			portNVIC_SYSTICK_CURRENT_VALUE_REG = 0UL;
 556:Middlewares/Third_Party/FreeRTOS/Source/portable/GCC/ARM_CM3/port.c **** 
 557:Middlewares/Third_Party/FreeRTOS/Source/portable/GCC/ARM_CM3/port.c **** 			/* Restart SysTick. */
 558:Middlewares/Third_Party/FreeRTOS/Source/portable/GCC/ARM_CM3/port.c **** 			portNVIC_SYSTICK_CTRL_REG |= portNVIC_SYSTICK_ENABLE_BIT;
 559:Middlewares/Third_Party/FreeRTOS/Source/portable/GCC/ARM_CM3/port.c **** 
 560:Middlewares/Third_Party/FreeRTOS/Source/portable/GCC/ARM_CM3/port.c **** 			/* Sleep until something happens.  configPRE_SLEEP_PROCESSING() can
 561:Middlewares/Third_Party/FreeRTOS/Source/portable/GCC/ARM_CM3/port.c **** 			set its parameter to 0 to indicate that its implementation contains
 562:Middlewares/Third_Party/FreeRTOS/Source/portable/GCC/ARM_CM3/port.c **** 			its own wait for interrupt or wait for event instruction, and so wfi
 563:Middlewares/Third_Party/FreeRTOS/Source/portable/GCC/ARM_CM3/port.c **** 			should not be executed again.  However, the original expected idle
 564:Middlewares/Third_Party/FreeRTOS/Source/portable/GCC/ARM_CM3/port.c **** 			time variable must remain unmodified, so a copy is taken. */
 565:Middlewares/Third_Party/FreeRTOS/Source/portable/GCC/ARM_CM3/port.c **** 			xModifiableIdleTime = xExpectedIdleTime;
 566:Middlewares/Third_Party/FreeRTOS/Source/portable/GCC/ARM_CM3/port.c **** 			configPRE_SLEEP_PROCESSING( &xModifiableIdleTime );
 567:Middlewares/Third_Party/FreeRTOS/Source/portable/GCC/ARM_CM3/port.c **** 			if( xModifiableIdleTime > 0 )
 568:Middlewares/Third_Party/FreeRTOS/Source/portable/GCC/ARM_CM3/port.c **** 			{
 569:Middlewares/Third_Party/FreeRTOS/Source/portable/GCC/ARM_CM3/port.c **** 				__asm volatile( "dsb" );
 570:Middlewares/Third_Party/FreeRTOS/Source/portable/GCC/ARM_CM3/port.c **** 				__asm volatile( "wfi" );
 571:Middlewares/Third_Party/FreeRTOS/Source/portable/GCC/ARM_CM3/port.c **** 				__asm volatile( "isb" );
 572:Middlewares/Third_Party/FreeRTOS/Source/portable/GCC/ARM_CM3/port.c **** 			}
 573:Middlewares/Third_Party/FreeRTOS/Source/portable/GCC/ARM_CM3/port.c **** 			configPOST_SLEEP_PROCESSING( &xExpectedIdleTime );
 574:Middlewares/Third_Party/FreeRTOS/Source/portable/GCC/ARM_CM3/port.c **** 
 575:Middlewares/Third_Party/FreeRTOS/Source/portable/GCC/ARM_CM3/port.c **** 			/* Stop SysTick.  Again, the time the SysTick is stopped for is
 576:Middlewares/Third_Party/FreeRTOS/Source/portable/GCC/ARM_CM3/port.c **** 			accounted for as best it can be, but using the tickless mode will
 577:Middlewares/Third_Party/FreeRTOS/Source/portable/GCC/ARM_CM3/port.c **** 			inevitably result in some tiny drift of the time maintained by the
 578:Middlewares/Third_Party/FreeRTOS/Source/portable/GCC/ARM_CM3/port.c **** 			kernel with respect to calendar time. */
 579:Middlewares/Third_Party/FreeRTOS/Source/portable/GCC/ARM_CM3/port.c **** 			ulSysTickCTRL = portNVIC_SYSTICK_CTRL_REG;
 580:Middlewares/Third_Party/FreeRTOS/Source/portable/GCC/ARM_CM3/port.c **** 			portNVIC_SYSTICK_CTRL_REG = ( ulSysTickCTRL & ~portNVIC_SYSTICK_ENABLE_BIT );
 581:Middlewares/Third_Party/FreeRTOS/Source/portable/GCC/ARM_CM3/port.c **** 
 582:Middlewares/Third_Party/FreeRTOS/Source/portable/GCC/ARM_CM3/port.c **** 			/* Re-enable interrupts - see comments above the cpsid instruction()
 583:Middlewares/Third_Party/FreeRTOS/Source/portable/GCC/ARM_CM3/port.c **** 			above. */
 584:Middlewares/Third_Party/FreeRTOS/Source/portable/GCC/ARM_CM3/port.c **** 			__asm volatile( "cpsie i" );
 585:Middlewares/Third_Party/FreeRTOS/Source/portable/GCC/ARM_CM3/port.c **** 
 586:Middlewares/Third_Party/FreeRTOS/Source/portable/GCC/ARM_CM3/port.c **** 			if( ( ulSysTickCTRL & portNVIC_SYSTICK_COUNT_FLAG_BIT ) != 0 )
 587:Middlewares/Third_Party/FreeRTOS/Source/portable/GCC/ARM_CM3/port.c **** 			{
 588:Middlewares/Third_Party/FreeRTOS/Source/portable/GCC/ARM_CM3/port.c **** 				uint32_t ulCalculatedLoadValue;
 589:Middlewares/Third_Party/FreeRTOS/Source/portable/GCC/ARM_CM3/port.c **** 
 590:Middlewares/Third_Party/FreeRTOS/Source/portable/GCC/ARM_CM3/port.c **** 				/* The tick interrupt has already executed, and the SysTick
 591:Middlewares/Third_Party/FreeRTOS/Source/portable/GCC/ARM_CM3/port.c **** 				count reloaded with ulReloadValue.  Reset the
 592:Middlewares/Third_Party/FreeRTOS/Source/portable/GCC/ARM_CM3/port.c **** 				portNVIC_SYSTICK_LOAD_REG with whatever remains of this tick
 593:Middlewares/Third_Party/FreeRTOS/Source/portable/GCC/ARM_CM3/port.c **** 				period. */
 594:Middlewares/Third_Party/FreeRTOS/Source/portable/GCC/ARM_CM3/port.c **** 				ulCalculatedLoadValue = ( ulTimerCountsForOneTick - 1UL ) - ( ulReloadValue - portNVIC_SYSTICK_
 595:Middlewares/Third_Party/FreeRTOS/Source/portable/GCC/ARM_CM3/port.c **** 
 596:Middlewares/Third_Party/FreeRTOS/Source/portable/GCC/ARM_CM3/port.c **** 				/* Don't allow a tiny value, or values that have somehow
 597:Middlewares/Third_Party/FreeRTOS/Source/portable/GCC/ARM_CM3/port.c **** 				underflowed because the post sleep hook did something
 598:Middlewares/Third_Party/FreeRTOS/Source/portable/GCC/ARM_CM3/port.c **** 				that took too long. */
ARM GAS  /tmp/cczGDbKf.s 			page 21


 599:Middlewares/Third_Party/FreeRTOS/Source/portable/GCC/ARM_CM3/port.c **** 				if( ( ulCalculatedLoadValue < ulStoppedTimerCompensation ) || ( ulCalculatedLoadValue > ulTimer
 600:Middlewares/Third_Party/FreeRTOS/Source/portable/GCC/ARM_CM3/port.c **** 				{
 601:Middlewares/Third_Party/FreeRTOS/Source/portable/GCC/ARM_CM3/port.c **** 					ulCalculatedLoadValue = ( ulTimerCountsForOneTick - 1UL );
 602:Middlewares/Third_Party/FreeRTOS/Source/portable/GCC/ARM_CM3/port.c **** 				}
 603:Middlewares/Third_Party/FreeRTOS/Source/portable/GCC/ARM_CM3/port.c **** 
 604:Middlewares/Third_Party/FreeRTOS/Source/portable/GCC/ARM_CM3/port.c **** 				portNVIC_SYSTICK_LOAD_REG = ulCalculatedLoadValue;
 605:Middlewares/Third_Party/FreeRTOS/Source/portable/GCC/ARM_CM3/port.c **** 
 606:Middlewares/Third_Party/FreeRTOS/Source/portable/GCC/ARM_CM3/port.c **** 				/* The tick interrupt handler will already have pended the tick
 607:Middlewares/Third_Party/FreeRTOS/Source/portable/GCC/ARM_CM3/port.c **** 				processing in the kernel.  As the pending tick will be
 608:Middlewares/Third_Party/FreeRTOS/Source/portable/GCC/ARM_CM3/port.c **** 				processed as soon as this function exits, the tick value
 609:Middlewares/Third_Party/FreeRTOS/Source/portable/GCC/ARM_CM3/port.c **** 				maintained by the tick is stepped forward by one less than the
 610:Middlewares/Third_Party/FreeRTOS/Source/portable/GCC/ARM_CM3/port.c **** 				time spent waiting. */
 611:Middlewares/Third_Party/FreeRTOS/Source/portable/GCC/ARM_CM3/port.c **** 				ulCompleteTickPeriods = xExpectedIdleTime - 1UL;
 612:Middlewares/Third_Party/FreeRTOS/Source/portable/GCC/ARM_CM3/port.c **** 			}
 613:Middlewares/Third_Party/FreeRTOS/Source/portable/GCC/ARM_CM3/port.c **** 			else
 614:Middlewares/Third_Party/FreeRTOS/Source/portable/GCC/ARM_CM3/port.c **** 			{
 615:Middlewares/Third_Party/FreeRTOS/Source/portable/GCC/ARM_CM3/port.c **** 				/* Something other than the tick interrupt ended the sleep.
 616:Middlewares/Third_Party/FreeRTOS/Source/portable/GCC/ARM_CM3/port.c **** 				Work out how long the sleep lasted rounded to complete tick
 617:Middlewares/Third_Party/FreeRTOS/Source/portable/GCC/ARM_CM3/port.c **** 				periods (not the ulReload value which accounted for part
 618:Middlewares/Third_Party/FreeRTOS/Source/portable/GCC/ARM_CM3/port.c **** 				ticks). */
 619:Middlewares/Third_Party/FreeRTOS/Source/portable/GCC/ARM_CM3/port.c **** 				ulCompletedSysTickDecrements = ( xExpectedIdleTime * ulTimerCountsForOneTick ) - portNVIC_SYSTI
 620:Middlewares/Third_Party/FreeRTOS/Source/portable/GCC/ARM_CM3/port.c **** 
 621:Middlewares/Third_Party/FreeRTOS/Source/portable/GCC/ARM_CM3/port.c **** 				/* How many complete tick periods passed while the processor
 622:Middlewares/Third_Party/FreeRTOS/Source/portable/GCC/ARM_CM3/port.c **** 				was waiting? */
 623:Middlewares/Third_Party/FreeRTOS/Source/portable/GCC/ARM_CM3/port.c **** 				ulCompleteTickPeriods = ulCompletedSysTickDecrements / ulTimerCountsForOneTick;
 624:Middlewares/Third_Party/FreeRTOS/Source/portable/GCC/ARM_CM3/port.c **** 
 625:Middlewares/Third_Party/FreeRTOS/Source/portable/GCC/ARM_CM3/port.c **** 				/* The reload value is set to whatever fraction of a single tick
 626:Middlewares/Third_Party/FreeRTOS/Source/portable/GCC/ARM_CM3/port.c **** 				period remains. */
 627:Middlewares/Third_Party/FreeRTOS/Source/portable/GCC/ARM_CM3/port.c **** 				portNVIC_SYSTICK_LOAD_REG = ( ( ulCompleteTickPeriods + 1 ) * ulTimerCountsForOneTick ) - ulCom
 628:Middlewares/Third_Party/FreeRTOS/Source/portable/GCC/ARM_CM3/port.c **** 			}
 629:Middlewares/Third_Party/FreeRTOS/Source/portable/GCC/ARM_CM3/port.c **** 
 630:Middlewares/Third_Party/FreeRTOS/Source/portable/GCC/ARM_CM3/port.c **** 			/* Restart SysTick so it runs from portNVIC_SYSTICK_LOAD_REG
 631:Middlewares/Third_Party/FreeRTOS/Source/portable/GCC/ARM_CM3/port.c **** 			again, then set portNVIC_SYSTICK_LOAD_REG back to its standard
 632:Middlewares/Third_Party/FreeRTOS/Source/portable/GCC/ARM_CM3/port.c **** 			value.  The critical section is used to ensure the tick interrupt
 633:Middlewares/Third_Party/FreeRTOS/Source/portable/GCC/ARM_CM3/port.c **** 			can only execute once in the case that the reload register is near
 634:Middlewares/Third_Party/FreeRTOS/Source/portable/GCC/ARM_CM3/port.c **** 			zero. */
 635:Middlewares/Third_Party/FreeRTOS/Source/portable/GCC/ARM_CM3/port.c **** 			portNVIC_SYSTICK_CURRENT_VALUE_REG = 0UL;
 636:Middlewares/Third_Party/FreeRTOS/Source/portable/GCC/ARM_CM3/port.c **** 			portENTER_CRITICAL();
 637:Middlewares/Third_Party/FreeRTOS/Source/portable/GCC/ARM_CM3/port.c **** 			{
 638:Middlewares/Third_Party/FreeRTOS/Source/portable/GCC/ARM_CM3/port.c **** 				portNVIC_SYSTICK_CTRL_REG |= portNVIC_SYSTICK_ENABLE_BIT;
 639:Middlewares/Third_Party/FreeRTOS/Source/portable/GCC/ARM_CM3/port.c **** 				vTaskStepTick( ulCompleteTickPeriods );
 640:Middlewares/Third_Party/FreeRTOS/Source/portable/GCC/ARM_CM3/port.c **** 				portNVIC_SYSTICK_LOAD_REG = ulTimerCountsForOneTick - 1UL;
 641:Middlewares/Third_Party/FreeRTOS/Source/portable/GCC/ARM_CM3/port.c **** 			}
 642:Middlewares/Third_Party/FreeRTOS/Source/portable/GCC/ARM_CM3/port.c **** 			portEXIT_CRITICAL();
 643:Middlewares/Third_Party/FreeRTOS/Source/portable/GCC/ARM_CM3/port.c **** 		}
 644:Middlewares/Third_Party/FreeRTOS/Source/portable/GCC/ARM_CM3/port.c **** 	}
 645:Middlewares/Third_Party/FreeRTOS/Source/portable/GCC/ARM_CM3/port.c **** 
 646:Middlewares/Third_Party/FreeRTOS/Source/portable/GCC/ARM_CM3/port.c **** #endif /* #if configUSE_TICKLESS_IDLE */
 647:Middlewares/Third_Party/FreeRTOS/Source/portable/GCC/ARM_CM3/port.c **** /*-----------------------------------------------------------*/
 648:Middlewares/Third_Party/FreeRTOS/Source/portable/GCC/ARM_CM3/port.c **** 
 649:Middlewares/Third_Party/FreeRTOS/Source/portable/GCC/ARM_CM3/port.c **** /*
 650:Middlewares/Third_Party/FreeRTOS/Source/portable/GCC/ARM_CM3/port.c ****  * Setup the systick timer to generate the tick interrupts at the required
 651:Middlewares/Third_Party/FreeRTOS/Source/portable/GCC/ARM_CM3/port.c ****  * frequency.
 652:Middlewares/Third_Party/FreeRTOS/Source/portable/GCC/ARM_CM3/port.c ****  */
 653:Middlewares/Third_Party/FreeRTOS/Source/portable/GCC/ARM_CM3/port.c **** __attribute__(( weak )) void vPortSetupTimerInterrupt( void )
 654:Middlewares/Third_Party/FreeRTOS/Source/portable/GCC/ARM_CM3/port.c **** {
 535              		.loc 1 654 0
ARM GAS  /tmp/cczGDbKf.s 			page 22


 536              		.cfi_startproc
 537              		@ args = 0, pretend = 0, frame = 0
 538              		@ frame_needed = 0, uses_anonymous_args = 0
 539              		@ link register save eliminated.
 655:Middlewares/Third_Party/FreeRTOS/Source/portable/GCC/ARM_CM3/port.c **** 	/* Calculate the constants required to configure the tick interrupt. */
 656:Middlewares/Third_Party/FreeRTOS/Source/portable/GCC/ARM_CM3/port.c **** 	#if configUSE_TICKLESS_IDLE == 1
 657:Middlewares/Third_Party/FreeRTOS/Source/portable/GCC/ARM_CM3/port.c **** 	{
 658:Middlewares/Third_Party/FreeRTOS/Source/portable/GCC/ARM_CM3/port.c **** 		ulTimerCountsForOneTick = ( configSYSTICK_CLOCK_HZ / configTICK_RATE_HZ );
 659:Middlewares/Third_Party/FreeRTOS/Source/portable/GCC/ARM_CM3/port.c **** 		xMaximumPossibleSuppressedTicks = portMAX_24_BIT_NUMBER / ulTimerCountsForOneTick;
 660:Middlewares/Third_Party/FreeRTOS/Source/portable/GCC/ARM_CM3/port.c **** 		ulStoppedTimerCompensation = portMISSED_COUNTS_FACTOR / ( configCPU_CLOCK_HZ / configSYSTICK_CLOC
 661:Middlewares/Third_Party/FreeRTOS/Source/portable/GCC/ARM_CM3/port.c **** 	}
 662:Middlewares/Third_Party/FreeRTOS/Source/portable/GCC/ARM_CM3/port.c **** 	#endif /* configUSE_TICKLESS_IDLE */
 663:Middlewares/Third_Party/FreeRTOS/Source/portable/GCC/ARM_CM3/port.c **** 
 664:Middlewares/Third_Party/FreeRTOS/Source/portable/GCC/ARM_CM3/port.c **** 	/* Configure SysTick to interrupt at the requested rate. */
 665:Middlewares/Third_Party/FreeRTOS/Source/portable/GCC/ARM_CM3/port.c **** 	portNVIC_SYSTICK_LOAD_REG = ( configSYSTICK_CLOCK_HZ / configTICK_RATE_HZ ) - 1UL;
 540              		.loc 1 665 0
 541 0000 4FF47A72 		mov	r2, #1000
 542 0004 054B     		ldr	r3, .L45
 543 0006 1B68     		ldr	r3, [r3]
 544 0008 B3FBF2F3 		udiv	r3, r3, r2
 545 000c 044A     		ldr	r2, .L45+4
 546 000e 013B     		subs	r3, r3, #1
 547 0010 1360     		str	r3, [r2]
 666:Middlewares/Third_Party/FreeRTOS/Source/portable/GCC/ARM_CM3/port.c **** 	portNVIC_SYSTICK_CTRL_REG = ( portNVIC_SYSTICK_CLK_BIT | portNVIC_SYSTICK_INT_BIT | portNVIC_SYSTI
 548              		.loc 1 666 0
 549 0012 0722     		movs	r2, #7
 550 0014 034B     		ldr	r3, .L45+8
 551 0016 1A60     		str	r2, [r3]
 552 0018 7047     		bx	lr
 553              	.L46:
 554 001a 00BF     		.align	2
 555              	.L45:
 556 001c 00000000 		.word	SystemCoreClock
 557 0020 14E000E0 		.word	-536813548
 558 0024 10E000E0 		.word	-536813552
 559              		.cfi_endproc
 560              	.LFE14:
 562              		.section	.text.xPortStartScheduler,"ax",%progbits
 563              		.align	1
 564              		.global	xPortStartScheduler
 565              		.syntax unified
 566              		.thumb
 567              		.thumb_func
 568              		.fpu softvfp
 570              	xPortStartScheduler:
 571              	.LFB5:
 285:Middlewares/Third_Party/FreeRTOS/Source/portable/GCC/ARM_CM3/port.c **** 	/* configMAX_SYSCALL_INTERRUPT_PRIORITY must not be set to 0.
 572              		.loc 1 285 0
 573              		.cfi_startproc
 574              		@ args = 0, pretend = 0, frame = 8
 575              		@ frame_needed = 0, uses_anonymous_args = 0
 576              	.LVL16:
 577 0000 13B5     		push	{r0, r1, r4, lr}
 578              	.LCFI8:
 579              		.cfi_def_cfa_offset 16
 580              		.cfi_offset 4, -8
 581              		.cfi_offset 14, -4
ARM GAS  /tmp/cczGDbKf.s 			page 23


 582              	.LBB2:
 302:Middlewares/Third_Party/FreeRTOS/Source/portable/GCC/ARM_CM3/port.c **** 
 583              		.loc 1 302 0
 584 0002 1F4B     		ldr	r3, .L54
 317:Middlewares/Third_Party/FreeRTOS/Source/portable/GCC/ARM_CM3/port.c **** 		{
 585              		.loc 1 317 0
 586 0004 0021     		movs	r1, #0
 302:Middlewares/Third_Party/FreeRTOS/Source/portable/GCC/ARM_CM3/port.c **** 
 587              		.loc 1 302 0
 588 0006 1A78     		ldrb	r2, [r3]	@ zero_extendqisi2
 589 0008 D2B2     		uxtb	r2, r2
 590 000a 0192     		str	r2, [sp, #4]
 306:Middlewares/Third_Party/FreeRTOS/Source/portable/GCC/ARM_CM3/port.c **** 
 591              		.loc 1 306 0
 592 000c FF22     		movs	r2, #255
 593 000e 1A70     		strb	r2, [r3]
 309:Middlewares/Third_Party/FreeRTOS/Source/portable/GCC/ARM_CM3/port.c **** 
 594              		.loc 1 309 0
 595 0010 1B78     		ldrb	r3, [r3]	@ zero_extendqisi2
 312:Middlewares/Third_Party/FreeRTOS/Source/portable/GCC/ARM_CM3/port.c **** 
 596              		.loc 1 312 0
 597 0012 1C4A     		ldr	r2, .L54+4
 309:Middlewares/Third_Party/FreeRTOS/Source/portable/GCC/ARM_CM3/port.c **** 
 598              		.loc 1 309 0
 599 0014 DBB2     		uxtb	r3, r3
 600 0016 8DF80330 		strb	r3, [sp, #3]
 312:Middlewares/Third_Party/FreeRTOS/Source/portable/GCC/ARM_CM3/port.c **** 
 601              		.loc 1 312 0
 602 001a 9DF80330 		ldrb	r3, [sp, #3]	@ zero_extendqisi2
 603 001e 03F05003 		and	r3, r3, #80
 604 0022 1370     		strb	r3, [r2]
 316:Middlewares/Third_Party/FreeRTOS/Source/portable/GCC/ARM_CM3/port.c **** 		while( ( ucMaxPriorityValue & portTOP_BIT_OF_BYTE ) == portTOP_BIT_OF_BYTE )
 605              		.loc 1 316 0
 606 0024 0722     		movs	r2, #7
 607 0026 184B     		ldr	r3, .L54+8
 608 0028 1A60     		str	r2, [r3]
 609              	.L48:
 317:Middlewares/Third_Party/FreeRTOS/Source/portable/GCC/ARM_CM3/port.c **** 		{
 610              		.loc 1 317 0
 611 002a 9DF80300 		ldrb	r0, [sp, #3]	@ zero_extendqisi2
 612 002e 541E     		subs	r4, r2, #1
 613 0030 0006     		lsls	r0, r0, #24
 614 0032 1CD4     		bmi	.L49
 615 0034 01B1     		cbz	r1, .L50
 616 0036 1A60     		str	r2, [r3]
 617              	.L50:
 325:Middlewares/Third_Party/FreeRTOS/Source/portable/GCC/ARM_CM3/port.c **** 		ulMaxPRIGROUPValue &= portPRIORITY_GROUP_MASK;
 618              		.loc 1 325 0
 619 0038 1A68     		ldr	r2, [r3]
 620 003a 1202     		lsls	r2, r2, #8
 326:Middlewares/Third_Party/FreeRTOS/Source/portable/GCC/ARM_CM3/port.c **** 
 621              		.loc 1 326 0
 622 003c 02F4E062 		and	r2, r2, #1792
 623 0040 1A60     		str	r2, [r3]
 330:Middlewares/Third_Party/FreeRTOS/Source/portable/GCC/ARM_CM3/port.c **** 	}
 624              		.loc 1 330 0
 625 0042 019B     		ldr	r3, [sp, #4]
ARM GAS  /tmp/cczGDbKf.s 			page 24


 626 0044 0E4A     		ldr	r2, .L54
 627 0046 DBB2     		uxtb	r3, r3
 628 0048 1370     		strb	r3, [r2]
 629              	.LBE2:
 335:Middlewares/Third_Party/FreeRTOS/Source/portable/GCC/ARM_CM3/port.c **** 	portNVIC_SYSPRI2_REG |= portNVIC_SYSTICK_PRI;
 630              		.loc 1 335 0
 631 004a 104B     		ldr	r3, .L54+12
 632 004c 1A68     		ldr	r2, [r3]
 633 004e 42F47002 		orr	r2, r2, #15728640
 634 0052 1A60     		str	r2, [r3]
 336:Middlewares/Third_Party/FreeRTOS/Source/portable/GCC/ARM_CM3/port.c **** 
 635              		.loc 1 336 0
 636 0054 1A68     		ldr	r2, [r3]
 637 0056 42F07042 		orr	r2, r2, #-268435456
 638 005a 1A60     		str	r2, [r3]
 340:Middlewares/Third_Party/FreeRTOS/Source/portable/GCC/ARM_CM3/port.c **** 
 639              		.loc 1 340 0
 640 005c FFF7FEFF 		bl	vPortSetupTimerInterrupt
 641              	.LVL17:
 343:Middlewares/Third_Party/FreeRTOS/Source/portable/GCC/ARM_CM3/port.c **** 
 642              		.loc 1 343 0
 643 0060 0022     		movs	r2, #0
 644 0062 0B4B     		ldr	r3, .L54+16
 645 0064 1A60     		str	r2, [r3]
 346:Middlewares/Third_Party/FreeRTOS/Source/portable/GCC/ARM_CM3/port.c **** 
 646              		.loc 1 346 0
 647 0066 FFF7FEFF 		bl	prvPortStartFirstTask
 648              	.LVL18:
 352:Middlewares/Third_Party/FreeRTOS/Source/portable/GCC/ARM_CM3/port.c **** 
 649              		.loc 1 352 0
 650 006a FFF7FEFF 		bl	prvTaskExitError
 651              	.LVL19:
 652              	.L49:
 653              	.LBB3:
 320:Middlewares/Third_Party/FreeRTOS/Source/portable/GCC/ARM_CM3/port.c **** 		}
 654              		.loc 1 320 0
 655 006e 9DF80320 		ldrb	r2, [sp, #3]	@ zero_extendqisi2
 656 0072 0121     		movs	r1, #1
 657 0074 5200     		lsls	r2, r2, #1
 658 0076 D2B2     		uxtb	r2, r2
 659 0078 8DF80320 		strb	r2, [sp, #3]
 660 007c 2246     		mov	r2, r4
 661 007e D4E7     		b	.L48
 662              	.L55:
 663              		.align	2
 664              	.L54:
 665 0080 00E400E0 		.word	-536812544
 666 0084 00000000 		.word	.LANCHOR1
 667 0088 00000000 		.word	.LANCHOR2
 668 008c 20ED00E0 		.word	-536810208
 669 0090 00000000 		.word	.LANCHOR0
 670              	.LBE3:
 671              		.cfi_endproc
 672              	.LFE5:
 674              		.section	.text.vPortValidateInterruptPriority,"ax",%progbits
 675              		.align	1
 676              		.global	vPortValidateInterruptPriority
ARM GAS  /tmp/cczGDbKf.s 			page 25


 677              		.syntax unified
 678              		.thumb
 679              		.thumb_func
 680              		.fpu softvfp
 682              	vPortValidateInterruptPriority:
 683              	.LFB15:
 667:Middlewares/Third_Party/FreeRTOS/Source/portable/GCC/ARM_CM3/port.c **** }
 668:Middlewares/Third_Party/FreeRTOS/Source/portable/GCC/ARM_CM3/port.c **** /*-----------------------------------------------------------*/
 669:Middlewares/Third_Party/FreeRTOS/Source/portable/GCC/ARM_CM3/port.c **** 
 670:Middlewares/Third_Party/FreeRTOS/Source/portable/GCC/ARM_CM3/port.c **** #if( configASSERT_DEFINED == 1 )
 671:Middlewares/Third_Party/FreeRTOS/Source/portable/GCC/ARM_CM3/port.c **** 
 672:Middlewares/Third_Party/FreeRTOS/Source/portable/GCC/ARM_CM3/port.c **** 	void vPortValidateInterruptPriority( void )
 673:Middlewares/Third_Party/FreeRTOS/Source/portable/GCC/ARM_CM3/port.c **** 	{
 684              		.loc 1 673 0
 685              		.cfi_startproc
 686              		@ args = 0, pretend = 0, frame = 0
 687              		@ frame_needed = 0, uses_anonymous_args = 0
 688 0000 08B5     		push	{r3, lr}
 689              	.LCFI9:
 690              		.cfi_def_cfa_offset 8
 691              		.cfi_offset 3, -8
 692              		.cfi_offset 14, -4
 674:Middlewares/Third_Party/FreeRTOS/Source/portable/GCC/ARM_CM3/port.c **** 	uint32_t ulCurrentInterrupt;
 675:Middlewares/Third_Party/FreeRTOS/Source/portable/GCC/ARM_CM3/port.c **** 	uint8_t ucCurrentPriority;
 676:Middlewares/Third_Party/FreeRTOS/Source/portable/GCC/ARM_CM3/port.c **** 
 677:Middlewares/Third_Party/FreeRTOS/Source/portable/GCC/ARM_CM3/port.c **** 		/* Obtain the number of the currently executing interrupt. */
 678:Middlewares/Third_Party/FreeRTOS/Source/portable/GCC/ARM_CM3/port.c **** 		__asm volatile( "mrs %0, ipsr" : "=r"( ulCurrentInterrupt ) );
 693              		.loc 1 678 0
 694              		.syntax unified
 695              	@ 678 "Middlewares/Third_Party/FreeRTOS/Source/portable/GCC/ARM_CM3/port.c" 1
 696 0002 EFF30583 		mrs r3, ipsr
 697              	@ 0 "" 2
 698              	.LVL20:
 679:Middlewares/Third_Party/FreeRTOS/Source/portable/GCC/ARM_CM3/port.c **** 
 680:Middlewares/Third_Party/FreeRTOS/Source/portable/GCC/ARM_CM3/port.c **** 		/* Is the interrupt number a user defined interrupt? */
 681:Middlewares/Third_Party/FreeRTOS/Source/portable/GCC/ARM_CM3/port.c **** 		if( ulCurrentInterrupt >= portFIRST_USER_INTERRUPT_NUMBER )
 699              		.loc 1 681 0
 700              		.thumb
 701              		.syntax unified
 702 0006 0F2B     		cmp	r3, #15
 703 0008 08D9     		bls	.L57
 682:Middlewares/Third_Party/FreeRTOS/Source/portable/GCC/ARM_CM3/port.c **** 		{
 683:Middlewares/Third_Party/FreeRTOS/Source/portable/GCC/ARM_CM3/port.c **** 			/* Look up the interrupt's priority. */
 684:Middlewares/Third_Party/FreeRTOS/Source/portable/GCC/ARM_CM3/port.c **** 			ucCurrentPriority = pcInterruptPriorityRegisters[ ulCurrentInterrupt ];
 704              		.loc 1 684 0
 705 000a 0A4A     		ldr	r2, .L61
 706 000c 9B5C     		ldrb	r3, [r3, r2]	@ zero_extendqisi2
 707              	.LVL21:
 685:Middlewares/Third_Party/FreeRTOS/Source/portable/GCC/ARM_CM3/port.c **** 
 686:Middlewares/Third_Party/FreeRTOS/Source/portable/GCC/ARM_CM3/port.c **** 			/* The following assertion will fail if a service routine (ISR) for
 687:Middlewares/Third_Party/FreeRTOS/Source/portable/GCC/ARM_CM3/port.c **** 			an interrupt that has been assigned a priority above
 688:Middlewares/Third_Party/FreeRTOS/Source/portable/GCC/ARM_CM3/port.c **** 			configMAX_SYSCALL_INTERRUPT_PRIORITY calls an ISR safe FreeRTOS API
 689:Middlewares/Third_Party/FreeRTOS/Source/portable/GCC/ARM_CM3/port.c **** 			function.  ISR safe FreeRTOS API functions must *only* be called
 690:Middlewares/Third_Party/FreeRTOS/Source/portable/GCC/ARM_CM3/port.c **** 			from interrupts that have been assigned a priority at or below
 691:Middlewares/Third_Party/FreeRTOS/Source/portable/GCC/ARM_CM3/port.c **** 			configMAX_SYSCALL_INTERRUPT_PRIORITY.
 692:Middlewares/Third_Party/FreeRTOS/Source/portable/GCC/ARM_CM3/port.c **** 
 693:Middlewares/Third_Party/FreeRTOS/Source/portable/GCC/ARM_CM3/port.c **** 			Numerically low interrupt priority numbers represent logically high
ARM GAS  /tmp/cczGDbKf.s 			page 26


 694:Middlewares/Third_Party/FreeRTOS/Source/portable/GCC/ARM_CM3/port.c **** 			interrupt priorities, therefore the priority of the interrupt must
 695:Middlewares/Third_Party/FreeRTOS/Source/portable/GCC/ARM_CM3/port.c **** 			be set to a value equal to or numerically *higher* than
 696:Middlewares/Third_Party/FreeRTOS/Source/portable/GCC/ARM_CM3/port.c **** 			configMAX_SYSCALL_INTERRUPT_PRIORITY.
 697:Middlewares/Third_Party/FreeRTOS/Source/portable/GCC/ARM_CM3/port.c **** 
 698:Middlewares/Third_Party/FreeRTOS/Source/portable/GCC/ARM_CM3/port.c **** 			Interrupts that	use the FreeRTOS API must not be left at their
 699:Middlewares/Third_Party/FreeRTOS/Source/portable/GCC/ARM_CM3/port.c **** 			default priority of	zero as that is the highest possible priority,
 700:Middlewares/Third_Party/FreeRTOS/Source/portable/GCC/ARM_CM3/port.c **** 			which is guaranteed to be above configMAX_SYSCALL_INTERRUPT_PRIORITY,
 701:Middlewares/Third_Party/FreeRTOS/Source/portable/GCC/ARM_CM3/port.c **** 			and	therefore also guaranteed to be invalid.
 702:Middlewares/Third_Party/FreeRTOS/Source/portable/GCC/ARM_CM3/port.c **** 
 703:Middlewares/Third_Party/FreeRTOS/Source/portable/GCC/ARM_CM3/port.c **** 			FreeRTOS maintains separate thread and ISR API functions to ensure
 704:Middlewares/Third_Party/FreeRTOS/Source/portable/GCC/ARM_CM3/port.c **** 			interrupt entry is as fast and simple as possible.
 705:Middlewares/Third_Party/FreeRTOS/Source/portable/GCC/ARM_CM3/port.c **** 
 706:Middlewares/Third_Party/FreeRTOS/Source/portable/GCC/ARM_CM3/port.c **** 			The following links provide detailed information:
 707:Middlewares/Third_Party/FreeRTOS/Source/portable/GCC/ARM_CM3/port.c **** 			http://www.freertos.org/RTOS-Cortex-M3-M4.html
 708:Middlewares/Third_Party/FreeRTOS/Source/portable/GCC/ARM_CM3/port.c **** 			http://www.freertos.org/FAQHelp.html */
 709:Middlewares/Third_Party/FreeRTOS/Source/portable/GCC/ARM_CM3/port.c **** 			configASSERT( ucCurrentPriority >= ucMaxSysCallPriority );
 708              		.loc 1 709 0
 709 000e 0A4A     		ldr	r2, .L61+4
 710 0010 1278     		ldrb	r2, [r2]	@ zero_extendqisi2
 711 0012 9A42     		cmp	r2, r3
 712 0014 02D9     		bls	.L57
 713              		.loc 1 709 0 is_stmt 0 discriminator 1
 714 0016 FFF7FEFF 		bl	ulPortSetInterruptMask
 715              	.LVL22:
 716              	.L58:
 717 001a FEE7     		b	.L58
 718              	.LVL23:
 719              	.L57:
 710:Middlewares/Third_Party/FreeRTOS/Source/portable/GCC/ARM_CM3/port.c **** 		}
 711:Middlewares/Third_Party/FreeRTOS/Source/portable/GCC/ARM_CM3/port.c **** 
 712:Middlewares/Third_Party/FreeRTOS/Source/portable/GCC/ARM_CM3/port.c **** 		/* Priority grouping:  The interrupt controller (NVIC) allows the bits
 713:Middlewares/Third_Party/FreeRTOS/Source/portable/GCC/ARM_CM3/port.c **** 		that define each interrupt's priority to be split between bits that
 714:Middlewares/Third_Party/FreeRTOS/Source/portable/GCC/ARM_CM3/port.c **** 		define the interrupt's pre-emption priority bits and bits that define
 715:Middlewares/Third_Party/FreeRTOS/Source/portable/GCC/ARM_CM3/port.c **** 		the interrupt's sub-priority.  For simplicity all bits must be defined
 716:Middlewares/Third_Party/FreeRTOS/Source/portable/GCC/ARM_CM3/port.c **** 		to be pre-emption priority bits.  The following assertion will fail if
 717:Middlewares/Third_Party/FreeRTOS/Source/portable/GCC/ARM_CM3/port.c **** 		this is not the case (if some bits represent a sub-priority).
 718:Middlewares/Third_Party/FreeRTOS/Source/portable/GCC/ARM_CM3/port.c **** 
 719:Middlewares/Third_Party/FreeRTOS/Source/portable/GCC/ARM_CM3/port.c **** 		If the application only uses CMSIS libraries for interrupt
 720:Middlewares/Third_Party/FreeRTOS/Source/portable/GCC/ARM_CM3/port.c **** 		configuration then the correct setting can be achieved on all Cortex-M
 721:Middlewares/Third_Party/FreeRTOS/Source/portable/GCC/ARM_CM3/port.c **** 		devices by calling NVIC_SetPriorityGrouping( 0 ); before starting the
 722:Middlewares/Third_Party/FreeRTOS/Source/portable/GCC/ARM_CM3/port.c **** 		scheduler.  Note however that some vendor specific peripheral libraries
 723:Middlewares/Third_Party/FreeRTOS/Source/portable/GCC/ARM_CM3/port.c **** 		assume a non-zero priority group setting, in which cases using a value
 724:Middlewares/Third_Party/FreeRTOS/Source/portable/GCC/ARM_CM3/port.c **** 		of zero will result in unpredicable behaviour. */
 725:Middlewares/Third_Party/FreeRTOS/Source/portable/GCC/ARM_CM3/port.c **** 		configASSERT( ( portAIRCR_REG & portPRIORITY_GROUP_MASK ) <= ulMaxPRIGROUPValue );
 720              		.loc 1 725 0 is_stmt 1
 721 001c 074B     		ldr	r3, .L61+8
 722 001e 084A     		ldr	r2, .L61+12
 723 0020 1B68     		ldr	r3, [r3]
 724 0022 1268     		ldr	r2, [r2]
 725 0024 03F4E063 		and	r3, r3, #1792
 726 0028 9342     		cmp	r3, r2
 727 002a 02D9     		bls	.L56
 728              		.loc 1 725 0 is_stmt 0 discriminator 1
 729 002c FFF7FEFF 		bl	ulPortSetInterruptMask
 730              	.LVL24:
 731              	.L60:
 732 0030 FEE7     		b	.L60
ARM GAS  /tmp/cczGDbKf.s 			page 27


 733              	.L56:
 734 0032 08BD     		pop	{r3, pc}
 735              	.L62:
 736              		.align	2
 737              	.L61:
 738 0034 F0E300E0 		.word	-536812560
 739 0038 00000000 		.word	.LANCHOR1
 740 003c 0CED00E0 		.word	-536810228
 741 0040 00000000 		.word	.LANCHOR2
 742              		.cfi_endproc
 743              	.LFE15:
 745              		.section	.bss.ucMaxSysCallPriority,"aw",%nobits
 746              		.set	.LANCHOR1,. + 0
 749              	ucMaxSysCallPriority:
 750 0000 00       		.space	1
 751              		.section	.bss.ulMaxPRIGROUPValue,"aw",%nobits
 752              		.align	2
 753              		.set	.LANCHOR2,. + 0
 756              	ulMaxPRIGROUPValue:
 757 0000 00000000 		.space	4
 758              		.section	.data.uxCriticalNesting,"aw",%progbits
 759              		.align	2
 760              		.set	.LANCHOR0,. + 0
 763              	uxCriticalNesting:
 764 0000 AAAAAAAA 		.word	-1431655766
 765              		.text
 766              	.Letext0:
 767              		.file 2 "/opt/gcc-arm-none-eabi-6-2017-q1-update/arm-none-eabi/include/machine/_default_types.h"
 768              		.file 3 "/opt/gcc-arm-none-eabi-6-2017-q1-update/arm-none-eabi/include/sys/_stdint.h"
 769              		.file 4 "Middlewares/Third_Party/FreeRTOS/Source/include/projdefs.h"
 770              		.file 5 "Middlewares/Third_Party/FreeRTOS/Source/portable/GCC/ARM_CM3/portmacro.h"
 771              		.file 6 "Inc/FreeRTOSConfig.h"
 772              		.file 7 "Middlewares/Third_Party/FreeRTOS/Source/include/task.h"
ARM GAS  /tmp/cczGDbKf.s 			page 28

