ARM GAS  /tmp/ccXA1n6j.s 			page 1


   1              		.cpu cortex-m3
   2              		.eabi_attribute 20, 1
   3              		.eabi_attribute 21, 1
   4              		.eabi_attribute 23, 3
   5              		.eabi_attribute 24, 1
   6              		.eabi_attribute 25, 1
   7              		.eabi_attribute 26, 1
   8              		.eabi_attribute 30, 4
   9              		.eabi_attribute 34, 1
  10              		.eabi_attribute 18, 4
  11              		.file	"stm32f1xx_hal_spi_ex.c"
  12              		.text
  13              	.Ltext0:
  14              		.cfi_sections	.debug_frame
  15              		.section	.text.HAL_SPI_Init,"ax",%progbits
  16              		.align	1
  17              		.global	HAL_SPI_Init
  18              		.syntax unified
  19              		.thumb
  20              		.thumb_func
  21              		.fpu softvfp
  23              	HAL_SPI_Init:
  24              	.LFB64:
  25              		.file 1 "Drivers/STM32F1xx_HAL_Driver/Src/stm32f1xx_hal_spi_ex.c"
   1:Drivers/STM32F1xx_HAL_Driver/Src/stm32f1xx_hal_spi_ex.c **** /**
   2:Drivers/STM32F1xx_HAL_Driver/Src/stm32f1xx_hal_spi_ex.c ****   ******************************************************************************
   3:Drivers/STM32F1xx_HAL_Driver/Src/stm32f1xx_hal_spi_ex.c ****   * @file    stm32f1xx_hal_spi_ex.c
   4:Drivers/STM32F1xx_HAL_Driver/Src/stm32f1xx_hal_spi_ex.c ****   * @author  MCD Application Team
   5:Drivers/STM32F1xx_HAL_Driver/Src/stm32f1xx_hal_spi_ex.c ****   * @version V1.0.4
   6:Drivers/STM32F1xx_HAL_Driver/Src/stm32f1xx_hal_spi_ex.c ****   * @date    29-April-2016
   7:Drivers/STM32F1xx_HAL_Driver/Src/stm32f1xx_hal_spi_ex.c ****   * @brief   Extended SPI HAL module driver.
   8:Drivers/STM32F1xx_HAL_Driver/Src/stm32f1xx_hal_spi_ex.c ****   *    
   9:Drivers/STM32F1xx_HAL_Driver/Src/stm32f1xx_hal_spi_ex.c ****   *          This file provides firmware functions to manage the following 
  10:Drivers/STM32F1xx_HAL_Driver/Src/stm32f1xx_hal_spi_ex.c ****   *          functionalities SPI extension peripheral:
  11:Drivers/STM32F1xx_HAL_Driver/Src/stm32f1xx_hal_spi_ex.c ****   *           + Extended Peripheral Control functions
  12:Drivers/STM32F1xx_HAL_Driver/Src/stm32f1xx_hal_spi_ex.c ****   *  
  13:Drivers/STM32F1xx_HAL_Driver/Src/stm32f1xx_hal_spi_ex.c ****   ******************************************************************************
  14:Drivers/STM32F1xx_HAL_Driver/Src/stm32f1xx_hal_spi_ex.c ****   * @attention
  15:Drivers/STM32F1xx_HAL_Driver/Src/stm32f1xx_hal_spi_ex.c ****   *
  16:Drivers/STM32F1xx_HAL_Driver/Src/stm32f1xx_hal_spi_ex.c ****   * <h2><center>&copy; COPYRIGHT(c) 2016 STMicroelectronics</center></h2>
  17:Drivers/STM32F1xx_HAL_Driver/Src/stm32f1xx_hal_spi_ex.c ****   *
  18:Drivers/STM32F1xx_HAL_Driver/Src/stm32f1xx_hal_spi_ex.c ****   * Redistribution and use in source and binary forms, with or without modification,
  19:Drivers/STM32F1xx_HAL_Driver/Src/stm32f1xx_hal_spi_ex.c ****   * are permitted provided that the following conditions are met:
  20:Drivers/STM32F1xx_HAL_Driver/Src/stm32f1xx_hal_spi_ex.c ****   *   1. Redistributions of source code must retain the above copyright notice,
  21:Drivers/STM32F1xx_HAL_Driver/Src/stm32f1xx_hal_spi_ex.c ****   *      this list of conditions and the following disclaimer.
  22:Drivers/STM32F1xx_HAL_Driver/Src/stm32f1xx_hal_spi_ex.c ****   *   2. Redistributions in binary form must reproduce the above copyright notice,
  23:Drivers/STM32F1xx_HAL_Driver/Src/stm32f1xx_hal_spi_ex.c ****   *      this list of conditions and the following disclaimer in the documentation
  24:Drivers/STM32F1xx_HAL_Driver/Src/stm32f1xx_hal_spi_ex.c ****   *      and/or other materials provided with the distribution.
  25:Drivers/STM32F1xx_HAL_Driver/Src/stm32f1xx_hal_spi_ex.c ****   *   3. Neither the name of STMicroelectronics nor the names of its contributors
  26:Drivers/STM32F1xx_HAL_Driver/Src/stm32f1xx_hal_spi_ex.c ****   *      may be used to endorse or promote products derived from this software
  27:Drivers/STM32F1xx_HAL_Driver/Src/stm32f1xx_hal_spi_ex.c ****   *      without specific prior written permission.
  28:Drivers/STM32F1xx_HAL_Driver/Src/stm32f1xx_hal_spi_ex.c ****   *
  29:Drivers/STM32F1xx_HAL_Driver/Src/stm32f1xx_hal_spi_ex.c ****   * THIS SOFTWARE IS PROVIDED BY THE COPYRIGHT HOLDERS AND CONTRIBUTORS "AS IS"
  30:Drivers/STM32F1xx_HAL_Driver/Src/stm32f1xx_hal_spi_ex.c ****   * AND ANY EXPRESS OR IMPLIED WARRANTIES, INCLUDING, BUT NOT LIMITED TO, THE
  31:Drivers/STM32F1xx_HAL_Driver/Src/stm32f1xx_hal_spi_ex.c ****   * IMPLIED WARRANTIES OF MERCHANTABILITY AND FITNESS FOR A PARTICULAR PURPOSE ARE
  32:Drivers/STM32F1xx_HAL_Driver/Src/stm32f1xx_hal_spi_ex.c ****   * DISCLAIMED. IN NO EVENT SHALL THE COPYRIGHT HOLDER OR CONTRIBUTORS BE LIABLE
  33:Drivers/STM32F1xx_HAL_Driver/Src/stm32f1xx_hal_spi_ex.c ****   * FOR ANY DIRECT, INDIRECT, INCIDENTAL, SPECIAL, EXEMPLARY, OR CONSEQUENTIAL
ARM GAS  /tmp/ccXA1n6j.s 			page 2


  34:Drivers/STM32F1xx_HAL_Driver/Src/stm32f1xx_hal_spi_ex.c ****   * DAMAGES (INCLUDING, BUT NOT LIMITED TO, PROCUREMENT OF SUBSTITUTE GOODS OR
  35:Drivers/STM32F1xx_HAL_Driver/Src/stm32f1xx_hal_spi_ex.c ****   * SERVICES; LOSS OF USE, DATA, OR PROFITS; OR BUSINESS INTERRUPTION) HOWEVER
  36:Drivers/STM32F1xx_HAL_Driver/Src/stm32f1xx_hal_spi_ex.c ****   * CAUSED AND ON ANY THEORY OF LIABILITY, WHETHER IN CONTRACT, STRICT LIABILITY,
  37:Drivers/STM32F1xx_HAL_Driver/Src/stm32f1xx_hal_spi_ex.c ****   * OR TORT (INCLUDING NEGLIGENCE OR OTHERWISE) ARISING IN ANY WAY OUT OF THE USE
  38:Drivers/STM32F1xx_HAL_Driver/Src/stm32f1xx_hal_spi_ex.c ****   * OF THIS SOFTWARE, EVEN IF ADVISED OF THE POSSIBILITY OF SUCH DAMAGE.
  39:Drivers/STM32F1xx_HAL_Driver/Src/stm32f1xx_hal_spi_ex.c ****   *
  40:Drivers/STM32F1xx_HAL_Driver/Src/stm32f1xx_hal_spi_ex.c ****   ******************************************************************************
  41:Drivers/STM32F1xx_HAL_Driver/Src/stm32f1xx_hal_spi_ex.c ****   */
  42:Drivers/STM32F1xx_HAL_Driver/Src/stm32f1xx_hal_spi_ex.c **** 
  43:Drivers/STM32F1xx_HAL_Driver/Src/stm32f1xx_hal_spi_ex.c **** /* Includes ------------------------------------------------------------------*/
  44:Drivers/STM32F1xx_HAL_Driver/Src/stm32f1xx_hal_spi_ex.c **** #include "stm32f1xx_hal.h"
  45:Drivers/STM32F1xx_HAL_Driver/Src/stm32f1xx_hal_spi_ex.c **** 
  46:Drivers/STM32F1xx_HAL_Driver/Src/stm32f1xx_hal_spi_ex.c **** /** @addtogroup STM32F1xx_HAL_Driver
  47:Drivers/STM32F1xx_HAL_Driver/Src/stm32f1xx_hal_spi_ex.c ****   * @{
  48:Drivers/STM32F1xx_HAL_Driver/Src/stm32f1xx_hal_spi_ex.c ****   */
  49:Drivers/STM32F1xx_HAL_Driver/Src/stm32f1xx_hal_spi_ex.c **** 
  50:Drivers/STM32F1xx_HAL_Driver/Src/stm32f1xx_hal_spi_ex.c **** /** @addtogroup SPI
  51:Drivers/STM32F1xx_HAL_Driver/Src/stm32f1xx_hal_spi_ex.c ****   * @{
  52:Drivers/STM32F1xx_HAL_Driver/Src/stm32f1xx_hal_spi_ex.c ****   */
  53:Drivers/STM32F1xx_HAL_Driver/Src/stm32f1xx_hal_spi_ex.c **** #ifdef HAL_SPI_MODULE_ENABLED
  54:Drivers/STM32F1xx_HAL_Driver/Src/stm32f1xx_hal_spi_ex.c **** 
  55:Drivers/STM32F1xx_HAL_Driver/Src/stm32f1xx_hal_spi_ex.c **** /** @defgroup SPI_Private_Variables SPI Private Variables
  56:Drivers/STM32F1xx_HAL_Driver/Src/stm32f1xx_hal_spi_ex.c ****  * @{
  57:Drivers/STM32F1xx_HAL_Driver/Src/stm32f1xx_hal_spi_ex.c ****  */
  58:Drivers/STM32F1xx_HAL_Driver/Src/stm32f1xx_hal_spi_ex.c **** /* Variable used to determine if device is impacted by implementation of workaround
  59:Drivers/STM32F1xx_HAL_Driver/Src/stm32f1xx_hal_spi_ex.c ****    related to wrong CRC errors detection on SPI2. Conditions in which this workaround has to be app
  60:Drivers/STM32F1xx_HAL_Driver/Src/stm32f1xx_hal_spi_ex.c ****     - STM32F101CDE/STM32F103CDE
  61:Drivers/STM32F1xx_HAL_Driver/Src/stm32f1xx_hal_spi_ex.c ****     - Revision ID : Z
  62:Drivers/STM32F1xx_HAL_Driver/Src/stm32f1xx_hal_spi_ex.c ****     - SPI2
  63:Drivers/STM32F1xx_HAL_Driver/Src/stm32f1xx_hal_spi_ex.c ****     - In receive only mode, with CRC calculation enabled, at the end of the CRC reception,
  64:Drivers/STM32F1xx_HAL_Driver/Src/stm32f1xx_hal_spi_ex.c ****       the software needs to check the CRCERR flag. If it is found set, read back the SPI_RXCRC:
  65:Drivers/STM32F1xx_HAL_Driver/Src/stm32f1xx_hal_spi_ex.c ****         + If the value is 0, the complete data transfer is successful.
  66:Drivers/STM32F1xx_HAL_Driver/Src/stm32f1xx_hal_spi_ex.c ****         + Otherwise, one or more errors have been detected during the data transfer by CPU or DMA.
  67:Drivers/STM32F1xx_HAL_Driver/Src/stm32f1xx_hal_spi_ex.c ****       If CRCERR is found reset, the complete data transfer is considered successful.
  68:Drivers/STM32F1xx_HAL_Driver/Src/stm32f1xx_hal_spi_ex.c **** */
  69:Drivers/STM32F1xx_HAL_Driver/Src/stm32f1xx_hal_spi_ex.c **** uint8_t uCRCErrorWorkaroundCheck = 0;
  70:Drivers/STM32F1xx_HAL_Driver/Src/stm32f1xx_hal_spi_ex.c **** /**
  71:Drivers/STM32F1xx_HAL_Driver/Src/stm32f1xx_hal_spi_ex.c ****   * @}
  72:Drivers/STM32F1xx_HAL_Driver/Src/stm32f1xx_hal_spi_ex.c ****   */
  73:Drivers/STM32F1xx_HAL_Driver/Src/stm32f1xx_hal_spi_ex.c **** 
  74:Drivers/STM32F1xx_HAL_Driver/Src/stm32f1xx_hal_spi_ex.c **** 
  75:Drivers/STM32F1xx_HAL_Driver/Src/stm32f1xx_hal_spi_ex.c **** /* Private typedef -----------------------------------------------------------*/
  76:Drivers/STM32F1xx_HAL_Driver/Src/stm32f1xx_hal_spi_ex.c **** /* Private define ------------------------------------------------------------*/
  77:Drivers/STM32F1xx_HAL_Driver/Src/stm32f1xx_hal_spi_ex.c **** /* Private macro -------------------------------------------------------------*/
  78:Drivers/STM32F1xx_HAL_Driver/Src/stm32f1xx_hal_spi_ex.c **** /* Private variables ---------------------------------------------------------*/
  79:Drivers/STM32F1xx_HAL_Driver/Src/stm32f1xx_hal_spi_ex.c **** /* Private function prototypes -----------------------------------------------*/
  80:Drivers/STM32F1xx_HAL_Driver/Src/stm32f1xx_hal_spi_ex.c **** /* Private functions ---------------------------------------------------------*/
  81:Drivers/STM32F1xx_HAL_Driver/Src/stm32f1xx_hal_spi_ex.c **** 
  82:Drivers/STM32F1xx_HAL_Driver/Src/stm32f1xx_hal_spi_ex.c **** /** @addtogroup SPI_Exported_Functions
  83:Drivers/STM32F1xx_HAL_Driver/Src/stm32f1xx_hal_spi_ex.c ****   * @{
  84:Drivers/STM32F1xx_HAL_Driver/Src/stm32f1xx_hal_spi_ex.c ****   */
  85:Drivers/STM32F1xx_HAL_Driver/Src/stm32f1xx_hal_spi_ex.c **** 
  86:Drivers/STM32F1xx_HAL_Driver/Src/stm32f1xx_hal_spi_ex.c **** /** @addtogroup SPI_Exported_Functions_Group1
  87:Drivers/STM32F1xx_HAL_Driver/Src/stm32f1xx_hal_spi_ex.c ****  *
  88:Drivers/STM32F1xx_HAL_Driver/Src/stm32f1xx_hal_spi_ex.c ****   * @{
  89:Drivers/STM32F1xx_HAL_Driver/Src/stm32f1xx_hal_spi_ex.c ****   */
  90:Drivers/STM32F1xx_HAL_Driver/Src/stm32f1xx_hal_spi_ex.c **** 
ARM GAS  /tmp/ccXA1n6j.s 			page 3


  91:Drivers/STM32F1xx_HAL_Driver/Src/stm32f1xx_hal_spi_ex.c **** /**
  92:Drivers/STM32F1xx_HAL_Driver/Src/stm32f1xx_hal_spi_ex.c ****   * @brief  Initializes the SPI according to the specified parameters 
  93:Drivers/STM32F1xx_HAL_Driver/Src/stm32f1xx_hal_spi_ex.c ****   *         in the SPI_InitTypeDef and create the associated handle.
  94:Drivers/STM32F1xx_HAL_Driver/Src/stm32f1xx_hal_spi_ex.c ****   * @param  hspi: pointer to a SPI_HandleTypeDef structure that contains
  95:Drivers/STM32F1xx_HAL_Driver/Src/stm32f1xx_hal_spi_ex.c ****   *                the configuration information for SPI module.
  96:Drivers/STM32F1xx_HAL_Driver/Src/stm32f1xx_hal_spi_ex.c ****   * @retval HAL status
  97:Drivers/STM32F1xx_HAL_Driver/Src/stm32f1xx_hal_spi_ex.c ****   */
  98:Drivers/STM32F1xx_HAL_Driver/Src/stm32f1xx_hal_spi_ex.c **** HAL_StatusTypeDef HAL_SPI_Init(SPI_HandleTypeDef *hspi)
  99:Drivers/STM32F1xx_HAL_Driver/Src/stm32f1xx_hal_spi_ex.c **** {
  26              		.loc 1 99 0
  27              		.cfi_startproc
  28              		@ args = 0, pretend = 0, frame = 0
  29              		@ frame_needed = 0, uses_anonymous_args = 0
  30              	.LVL0:
  31 0000 10B5     		push	{r4, lr}
  32              	.LCFI0:
  33              		.cfi_def_cfa_offset 8
  34              		.cfi_offset 4, -8
  35              		.cfi_offset 14, -4
 100:Drivers/STM32F1xx_HAL_Driver/Src/stm32f1xx_hal_spi_ex.c ****   /* Check the SPI handle allocation */
 101:Drivers/STM32F1xx_HAL_Driver/Src/stm32f1xx_hal_spi_ex.c ****   if(hspi == NULL)
  36              		.loc 1 101 0
  37 0002 0446     		mov	r4, r0
  38 0004 0028     		cmp	r0, #0
  39 0006 34D0     		beq	.L4
 102:Drivers/STM32F1xx_HAL_Driver/Src/stm32f1xx_hal_spi_ex.c ****   {
 103:Drivers/STM32F1xx_HAL_Driver/Src/stm32f1xx_hal_spi_ex.c ****     return HAL_ERROR;
 104:Drivers/STM32F1xx_HAL_Driver/Src/stm32f1xx_hal_spi_ex.c ****   }
 105:Drivers/STM32F1xx_HAL_Driver/Src/stm32f1xx_hal_spi_ex.c **** 
 106:Drivers/STM32F1xx_HAL_Driver/Src/stm32f1xx_hal_spi_ex.c ****   /* Check the parameters */
 107:Drivers/STM32F1xx_HAL_Driver/Src/stm32f1xx_hal_spi_ex.c ****   assert_param(IS_SPI_ALL_INSTANCE(hspi->Instance));
 108:Drivers/STM32F1xx_HAL_Driver/Src/stm32f1xx_hal_spi_ex.c ****   assert_param(IS_SPI_MODE(hspi->Init.Mode));
 109:Drivers/STM32F1xx_HAL_Driver/Src/stm32f1xx_hal_spi_ex.c ****   assert_param(IS_SPI_DIRECTION_MODE(hspi->Init.Direction));
 110:Drivers/STM32F1xx_HAL_Driver/Src/stm32f1xx_hal_spi_ex.c ****   assert_param(IS_SPI_DATASIZE(hspi->Init.DataSize));
 111:Drivers/STM32F1xx_HAL_Driver/Src/stm32f1xx_hal_spi_ex.c ****   assert_param(IS_SPI_CPOL(hspi->Init.CLKPolarity));
 112:Drivers/STM32F1xx_HAL_Driver/Src/stm32f1xx_hal_spi_ex.c ****   assert_param(IS_SPI_CPHA(hspi->Init.CLKPhase));
 113:Drivers/STM32F1xx_HAL_Driver/Src/stm32f1xx_hal_spi_ex.c ****   assert_param(IS_SPI_NSS(hspi->Init.NSS));
 114:Drivers/STM32F1xx_HAL_Driver/Src/stm32f1xx_hal_spi_ex.c ****   assert_param(IS_SPI_BAUDRATE_PRESCALER(hspi->Init.BaudRatePrescaler));
 115:Drivers/STM32F1xx_HAL_Driver/Src/stm32f1xx_hal_spi_ex.c ****   assert_param(IS_SPI_FIRST_BIT(hspi->Init.FirstBit));
 116:Drivers/STM32F1xx_HAL_Driver/Src/stm32f1xx_hal_spi_ex.c ****   assert_param(IS_SPI_TIMODE(hspi->Init.TIMode));
 117:Drivers/STM32F1xx_HAL_Driver/Src/stm32f1xx_hal_spi_ex.c ****   assert_param(IS_SPI_CRC_CALCULATION(hspi->Init.CRCCalculation));
 118:Drivers/STM32F1xx_HAL_Driver/Src/stm32f1xx_hal_spi_ex.c ****   assert_param(IS_SPI_CRC_POLYNOMIAL(hspi->Init.CRCPolynomial));
 119:Drivers/STM32F1xx_HAL_Driver/Src/stm32f1xx_hal_spi_ex.c **** 
 120:Drivers/STM32F1xx_HAL_Driver/Src/stm32f1xx_hal_spi_ex.c ****   if(hspi->State == HAL_SPI_STATE_RESET)
  40              		.loc 1 120 0
  41 0008 90F85130 		ldrb	r3, [r0, #81]	@ zero_extendqisi2
  42 000c 0BB9     		cbnz	r3, .L3
 121:Drivers/STM32F1xx_HAL_Driver/Src/stm32f1xx_hal_spi_ex.c ****   {
 122:Drivers/STM32F1xx_HAL_Driver/Src/stm32f1xx_hal_spi_ex.c ****     /* Init the low level hardware : GPIO, CLOCK, NVIC... */
 123:Drivers/STM32F1xx_HAL_Driver/Src/stm32f1xx_hal_spi_ex.c ****     HAL_SPI_MspInit(hspi);
  43              		.loc 1 123 0
  44 000e FFF7FEFF 		bl	HAL_SPI_MspInit
  45              	.LVL1:
  46              	.L3:
 124:Drivers/STM32F1xx_HAL_Driver/Src/stm32f1xx_hal_spi_ex.c ****   }
 125:Drivers/STM32F1xx_HAL_Driver/Src/stm32f1xx_hal_spi_ex.c ****   
 126:Drivers/STM32F1xx_HAL_Driver/Src/stm32f1xx_hal_spi_ex.c ****   hspi->State = HAL_SPI_STATE_BUSY;
ARM GAS  /tmp/ccXA1n6j.s 			page 4


  47              		.loc 1 126 0
  48 0012 0223     		movs	r3, #2
 127:Drivers/STM32F1xx_HAL_Driver/Src/stm32f1xx_hal_spi_ex.c **** 
 128:Drivers/STM32F1xx_HAL_Driver/Src/stm32f1xx_hal_spi_ex.c ****   /* Disble the selected SPI peripheral */
 129:Drivers/STM32F1xx_HAL_Driver/Src/stm32f1xx_hal_spi_ex.c ****   __HAL_SPI_DISABLE(hspi);
  49              		.loc 1 129 0
  50 0014 2168     		ldr	r1, [r4]
 126:Drivers/STM32F1xx_HAL_Driver/Src/stm32f1xx_hal_spi_ex.c **** 
  51              		.loc 1 126 0
  52 0016 84F85130 		strb	r3, [r4, #81]
  53              		.loc 1 129 0
  54 001a 0B68     		ldr	r3, [r1]
 130:Drivers/STM32F1xx_HAL_Driver/Src/stm32f1xx_hal_spi_ex.c **** 
 131:Drivers/STM32F1xx_HAL_Driver/Src/stm32f1xx_hal_spi_ex.c ****   /*----------------------- SPIx CR1 & CR2 Configuration ---------------------*/
 132:Drivers/STM32F1xx_HAL_Driver/Src/stm32f1xx_hal_spi_ex.c ****   /* Configure : SPI Mode, Communication Mode, Data size, Clock polarity and phase, NSS management,
 133:Drivers/STM32F1xx_HAL_Driver/Src/stm32f1xx_hal_spi_ex.c ****   Communication speed, First bit and CRC calculation state */
 134:Drivers/STM32F1xx_HAL_Driver/Src/stm32f1xx_hal_spi_ex.c ****   WRITE_REG(hspi->Instance->CR1, (hspi->Init.Mode | hspi->Init.Direction | hspi->Init.DataSize |
  55              		.loc 1 134 0
  56 001c A068     		ldr	r0, [r4, #8]
 129:Drivers/STM32F1xx_HAL_Driver/Src/stm32f1xx_hal_spi_ex.c **** 
  57              		.loc 1 129 0
  58 001e 23F04003 		bic	r3, r3, #64
  59 0022 0B60     		str	r3, [r1]
  60              		.loc 1 134 0
  61 0024 6368     		ldr	r3, [r4, #4]
  62 0026 A269     		ldr	r2, [r4, #24]
  63 0028 0343     		orrs	r3, r3, r0
  64 002a E068     		ldr	r0, [r4, #12]
  65 002c 0343     		orrs	r3, r3, r0
  66 002e 2069     		ldr	r0, [r4, #16]
  67 0030 0343     		orrs	r3, r3, r0
  68 0032 6069     		ldr	r0, [r4, #20]
  69 0034 0343     		orrs	r3, r3, r0
  70 0036 E069     		ldr	r0, [r4, #28]
  71 0038 0343     		orrs	r3, r3, r0
  72 003a 206A     		ldr	r0, [r4, #32]
  73 003c 0343     		orrs	r3, r3, r0
  74 003e A06A     		ldr	r0, [r4, #40]
  75 0040 0343     		orrs	r3, r3, r0
  76 0042 02F40070 		and	r0, r2, #512
  77 0046 0343     		orrs	r3, r3, r0
 135:Drivers/STM32F1xx_HAL_Driver/Src/stm32f1xx_hal_spi_ex.c ****                                   hspi->Init.CLKPolarity | hspi->Init.CLKPhase | (hspi->Init.NSS & 
 136:Drivers/STM32F1xx_HAL_Driver/Src/stm32f1xx_hal_spi_ex.c ****                                   hspi->Init.BaudRatePrescaler | hspi->Init.FirstBit  | hspi->Init.
 137:Drivers/STM32F1xx_HAL_Driver/Src/stm32f1xx_hal_spi_ex.c **** 
 138:Drivers/STM32F1xx_HAL_Driver/Src/stm32f1xx_hal_spi_ex.c ****   /* Configure : NSS management */
 139:Drivers/STM32F1xx_HAL_Driver/Src/stm32f1xx_hal_spi_ex.c ****   WRITE_REG(hspi->Instance->CR2, (((hspi->Init.NSS >> 16) & SPI_CR2_SSOE) | hspi->Init.TIMode));
 140:Drivers/STM32F1xx_HAL_Driver/Src/stm32f1xx_hal_spi_ex.c **** 
 141:Drivers/STM32F1xx_HAL_Driver/Src/stm32f1xx_hal_spi_ex.c ****   /*---------------------------- SPIx CRCPOLY Configuration ------------------*/
 142:Drivers/STM32F1xx_HAL_Driver/Src/stm32f1xx_hal_spi_ex.c ****   /* Configure : CRC Polynomial */
 143:Drivers/STM32F1xx_HAL_Driver/Src/stm32f1xx_hal_spi_ex.c ****   WRITE_REG(hspi->Instance->CRCPR, hspi->Init.CRCPolynomial);
 144:Drivers/STM32F1xx_HAL_Driver/Src/stm32f1xx_hal_spi_ex.c **** 
 145:Drivers/STM32F1xx_HAL_Driver/Src/stm32f1xx_hal_spi_ex.c **** #if defined (STM32F101x6) || defined (STM32F101xB) || defined (STM32F101xE) || defined (STM32F101xG
 146:Drivers/STM32F1xx_HAL_Driver/Src/stm32f1xx_hal_spi_ex.c ****   /* Activate the SPI mode (Make sure that I2SMOD bit in I2SCFGR register is reset) */
 147:Drivers/STM32F1xx_HAL_Driver/Src/stm32f1xx_hal_spi_ex.c ****   CLEAR_BIT(hspi->Instance->I2SCFGR, SPI_I2SCFGR_I2SMOD);
 148:Drivers/STM32F1xx_HAL_Driver/Src/stm32f1xx_hal_spi_ex.c **** #endif
 149:Drivers/STM32F1xx_HAL_Driver/Src/stm32f1xx_hal_spi_ex.c **** 
 150:Drivers/STM32F1xx_HAL_Driver/Src/stm32f1xx_hal_spi_ex.c **** #if defined (STM32F101xE) || defined (STM32F103xE)
ARM GAS  /tmp/ccXA1n6j.s 			page 5


 151:Drivers/STM32F1xx_HAL_Driver/Src/stm32f1xx_hal_spi_ex.c ****   /* Check RevisionID value for identifying if Device is Rev Z (0x0001) in order to enable workarou
 152:Drivers/STM32F1xx_HAL_Driver/Src/stm32f1xx_hal_spi_ex.c ****      CRC errors wrongly detected */
 153:Drivers/STM32F1xx_HAL_Driver/Src/stm32f1xx_hal_spi_ex.c ****   /* Pb is that ES_STM32F10xxCDE also identify an issue in Debug registers access while not in Debu
 154:Drivers/STM32F1xx_HAL_Driver/Src/stm32f1xx_hal_spi_ex.c ****      Revision ID information is only available in Debug mode, so Workaround could not be implemente
 155:Drivers/STM32F1xx_HAL_Driver/Src/stm32f1xx_hal_spi_ex.c ****      to distinguish Rev Z devices (issue present) from more recent version (issue fixed).
 156:Drivers/STM32F1xx_HAL_Driver/Src/stm32f1xx_hal_spi_ex.c ****      So, in case of Revison Z F101 or F103 devices, below variable should be assigned to 1 */
 157:Drivers/STM32F1xx_HAL_Driver/Src/stm32f1xx_hal_spi_ex.c ****   uCRCErrorWorkaroundCheck = 0;
 158:Drivers/STM32F1xx_HAL_Driver/Src/stm32f1xx_hal_spi_ex.c **** #else
 159:Drivers/STM32F1xx_HAL_Driver/Src/stm32f1xx_hal_spi_ex.c ****   uCRCErrorWorkaroundCheck = 0;
  78              		.loc 1 159 0
  79 0048 0020     		movs	r0, #0
 134:Drivers/STM32F1xx_HAL_Driver/Src/stm32f1xx_hal_spi_ex.c ****                                   hspi->Init.CLKPolarity | hspi->Init.CLKPhase | (hspi->Init.NSS & 
  80              		.loc 1 134 0
  81 004a 0B60     		str	r3, [r1]
 139:Drivers/STM32F1xx_HAL_Driver/Src/stm32f1xx_hal_spi_ex.c **** 
  82              		.loc 1 139 0
  83 004c 120C     		lsrs	r2, r2, #16
  84 004e 636A     		ldr	r3, [r4, #36]
  85 0050 02F00402 		and	r2, r2, #4
  86 0054 1A43     		orrs	r2, r2, r3
 143:Drivers/STM32F1xx_HAL_Driver/Src/stm32f1xx_hal_spi_ex.c **** 
  87              		.loc 1 143 0
  88 0056 E36A     		ldr	r3, [r4, #44]
 139:Drivers/STM32F1xx_HAL_Driver/Src/stm32f1xx_hal_spi_ex.c **** 
  89              		.loc 1 139 0
  90 0058 4A60     		str	r2, [r1, #4]
 143:Drivers/STM32F1xx_HAL_Driver/Src/stm32f1xx_hal_spi_ex.c **** 
  91              		.loc 1 143 0
  92 005a 0B61     		str	r3, [r1, #16]
 147:Drivers/STM32F1xx_HAL_Driver/Src/stm32f1xx_hal_spi_ex.c **** #endif
  93              		.loc 1 147 0
  94 005c CB69     		ldr	r3, [r1, #28]
  95 005e 23F40063 		bic	r3, r3, #2048
  96 0062 CB61     		str	r3, [r1, #28]
  97              		.loc 1 159 0
  98 0064 044B     		ldr	r3, .L5
 160:Drivers/STM32F1xx_HAL_Driver/Src/stm32f1xx_hal_spi_ex.c **** #endif
 161:Drivers/STM32F1xx_HAL_Driver/Src/stm32f1xx_hal_spi_ex.c **** 
 162:Drivers/STM32F1xx_HAL_Driver/Src/stm32f1xx_hal_spi_ex.c ****   hspi->ErrorCode = HAL_SPI_ERROR_NONE;
  99              		.loc 1 162 0
 100 0066 6065     		str	r0, [r4, #84]
 159:Drivers/STM32F1xx_HAL_Driver/Src/stm32f1xx_hal_spi_ex.c **** #endif
 101              		.loc 1 159 0
 102 0068 1870     		strb	r0, [r3]
 163:Drivers/STM32F1xx_HAL_Driver/Src/stm32f1xx_hal_spi_ex.c ****   hspi->State = HAL_SPI_STATE_READY;
 103              		.loc 1 163 0
 104 006a 0123     		movs	r3, #1
 105 006c 84F85130 		strb	r3, [r4, #81]
 164:Drivers/STM32F1xx_HAL_Driver/Src/stm32f1xx_hal_spi_ex.c ****   
 165:Drivers/STM32F1xx_HAL_Driver/Src/stm32f1xx_hal_spi_ex.c ****   return HAL_OK;
 106              		.loc 1 165 0
 107 0070 10BD     		pop	{r4, pc}
 108              	.LVL2:
 109              	.L4:
 103:Drivers/STM32F1xx_HAL_Driver/Src/stm32f1xx_hal_spi_ex.c ****   }
 110              		.loc 1 103 0
 111 0072 0120     		movs	r0, #1
ARM GAS  /tmp/ccXA1n6j.s 			page 6


 112              	.LVL3:
 166:Drivers/STM32F1xx_HAL_Driver/Src/stm32f1xx_hal_spi_ex.c **** }
 113              		.loc 1 166 0
 114 0074 10BD     		pop	{r4, pc}
 115              	.LVL4:
 116              	.L6:
 117 0076 00BF     		.align	2
 118              	.L5:
 119 0078 00000000 		.word	.LANCHOR0
 120              		.cfi_endproc
 121              	.LFE64:
 123              		.section	.text.SPI_ISCRCErrorValid,"ax",%progbits
 124              		.align	1
 125              		.global	SPI_ISCRCErrorValid
 126              		.syntax unified
 127              		.thumb
 128              		.thumb_func
 129              		.fpu softvfp
 131              	SPI_ISCRCErrorValid:
 132              	.LFB65:
 167:Drivers/STM32F1xx_HAL_Driver/Src/stm32f1xx_hal_spi_ex.c **** 
 168:Drivers/STM32F1xx_HAL_Driver/Src/stm32f1xx_hal_spi_ex.c **** /**
 169:Drivers/STM32F1xx_HAL_Driver/Src/stm32f1xx_hal_spi_ex.c ****   * @}
 170:Drivers/STM32F1xx_HAL_Driver/Src/stm32f1xx_hal_spi_ex.c ****   */
 171:Drivers/STM32F1xx_HAL_Driver/Src/stm32f1xx_hal_spi_ex.c **** 
 172:Drivers/STM32F1xx_HAL_Driver/Src/stm32f1xx_hal_spi_ex.c **** /**
 173:Drivers/STM32F1xx_HAL_Driver/Src/stm32f1xx_hal_spi_ex.c ****   * @}
 174:Drivers/STM32F1xx_HAL_Driver/Src/stm32f1xx_hal_spi_ex.c ****   */
 175:Drivers/STM32F1xx_HAL_Driver/Src/stm32f1xx_hal_spi_ex.c **** 
 176:Drivers/STM32F1xx_HAL_Driver/Src/stm32f1xx_hal_spi_ex.c **** /** @addtogroup SPI_Private_Functions
 177:Drivers/STM32F1xx_HAL_Driver/Src/stm32f1xx_hal_spi_ex.c ****   * @{
 178:Drivers/STM32F1xx_HAL_Driver/Src/stm32f1xx_hal_spi_ex.c ****   */
 179:Drivers/STM32F1xx_HAL_Driver/Src/stm32f1xx_hal_spi_ex.c **** 
 180:Drivers/STM32F1xx_HAL_Driver/Src/stm32f1xx_hal_spi_ex.c **** /**
 181:Drivers/STM32F1xx_HAL_Driver/Src/stm32f1xx_hal_spi_ex.c ****   * @brief  Checks if encountered CRC error could be corresponding to wrongly detected errors 
 182:Drivers/STM32F1xx_HAL_Driver/Src/stm32f1xx_hal_spi_ex.c ****   *         according to SPI instance, Device type, and revision ID.
 183:Drivers/STM32F1xx_HAL_Driver/Src/stm32f1xx_hal_spi_ex.c ****   * @param  hspi: pointer to a SPI_HandleTypeDef structure that contains
 184:Drivers/STM32F1xx_HAL_Driver/Src/stm32f1xx_hal_spi_ex.c ****   *               the configuration information for SPI module.
 185:Drivers/STM32F1xx_HAL_Driver/Src/stm32f1xx_hal_spi_ex.c ****   * @retval CRC error validity (SPI_INVALID_CRC_ERROR or SPI_VALID_CRC_ERROR).  
 186:Drivers/STM32F1xx_HAL_Driver/Src/stm32f1xx_hal_spi_ex.c **** */
 187:Drivers/STM32F1xx_HAL_Driver/Src/stm32f1xx_hal_spi_ex.c **** uint8_t SPI_ISCRCErrorValid(SPI_HandleTypeDef *hspi)
 188:Drivers/STM32F1xx_HAL_Driver/Src/stm32f1xx_hal_spi_ex.c **** {
 133              		.loc 1 188 0
 134              		.cfi_startproc
 135              		@ args = 0, pretend = 0, frame = 0
 136              		@ frame_needed = 0, uses_anonymous_args = 0
 137              		@ link register save eliminated.
 138              	.LVL5:
 189:Drivers/STM32F1xx_HAL_Driver/Src/stm32f1xx_hal_spi_ex.c **** #if defined (STM32F101xE) || defined (STM32F103xE)
 190:Drivers/STM32F1xx_HAL_Driver/Src/stm32f1xx_hal_spi_ex.c ****   /* Check how to handle this CRC error (workaround to be applied or not) */
 191:Drivers/STM32F1xx_HAL_Driver/Src/stm32f1xx_hal_spi_ex.c ****   /* If CRC errors could be wrongly detected (issue 2.15.2 in STM32F10xxC/D/E silicon limitations E
 192:Drivers/STM32F1xx_HAL_Driver/Src/stm32f1xx_hal_spi_ex.c ****   if ( (uCRCErrorWorkaroundCheck != 0) && (hspi->Instance == SPI2) )
 193:Drivers/STM32F1xx_HAL_Driver/Src/stm32f1xx_hal_spi_ex.c ****   {
 194:Drivers/STM32F1xx_HAL_Driver/Src/stm32f1xx_hal_spi_ex.c ****     if (hspi->Instance->RXCRCR == 0)
 195:Drivers/STM32F1xx_HAL_Driver/Src/stm32f1xx_hal_spi_ex.c ****     {
 196:Drivers/STM32F1xx_HAL_Driver/Src/stm32f1xx_hal_spi_ex.c ****       return (SPI_INVALID_CRC_ERROR);
 197:Drivers/STM32F1xx_HAL_Driver/Src/stm32f1xx_hal_spi_ex.c ****     }
ARM GAS  /tmp/ccXA1n6j.s 			page 7


 198:Drivers/STM32F1xx_HAL_Driver/Src/stm32f1xx_hal_spi_ex.c ****   }
 199:Drivers/STM32F1xx_HAL_Driver/Src/stm32f1xx_hal_spi_ex.c ****   return (SPI_VALID_CRC_ERROR);
 200:Drivers/STM32F1xx_HAL_Driver/Src/stm32f1xx_hal_spi_ex.c **** #else
 201:Drivers/STM32F1xx_HAL_Driver/Src/stm32f1xx_hal_spi_ex.c ****   return (SPI_VALID_CRC_ERROR);
 202:Drivers/STM32F1xx_HAL_Driver/Src/stm32f1xx_hal_spi_ex.c **** #endif
 203:Drivers/STM32F1xx_HAL_Driver/Src/stm32f1xx_hal_spi_ex.c **** }
 139              		.loc 1 203 0
 140 0000 0120     		movs	r0, #1
 141              	.LVL6:
 142 0002 7047     		bx	lr
 143              		.cfi_endproc
 144              	.LFE65:
 146              		.global	uCRCErrorWorkaroundCheck
 147              		.section	.bss.uCRCErrorWorkaroundCheck,"aw",%nobits
 148              		.set	.LANCHOR0,. + 0
 151              	uCRCErrorWorkaroundCheck:
 152 0000 00       		.space	1
 153              		.text
 154              	.Letext0:
 155              		.file 2 "/opt/gcc-arm-none-eabi-6-2017-q1-update/arm-none-eabi/include/machine/_default_types.h"
 156              		.file 3 "/opt/gcc-arm-none-eabi-6-2017-q1-update/arm-none-eabi/include/sys/_stdint.h"
 157              		.file 4 "Drivers/CMSIS/Include/core_cm3.h"
 158              		.file 5 "Drivers/CMSIS/Device/ST/STM32F1xx/Include/system_stm32f1xx.h"
 159              		.file 6 "Drivers/CMSIS/Device/ST/STM32F1xx/Include/stm32f103xb.h"
 160              		.file 7 "/opt/gcc-arm-none-eabi-6-2017-q1-update/arm-none-eabi/include/sys/lock.h"
 161              		.file 8 "/opt/gcc-arm-none-eabi-6-2017-q1-update/arm-none-eabi/include/sys/_types.h"
 162              		.file 9 "/opt/gcc-arm-none-eabi-6-2017-q1-update/lib/gcc/arm-none-eabi/6.3.1/include/stddef.h"
 163              		.file 10 "/opt/gcc-arm-none-eabi-6-2017-q1-update/arm-none-eabi/include/sys/reent.h"
 164              		.file 11 "Drivers/STM32F1xx_HAL_Driver/Inc/stm32f1xx_hal_def.h"
 165              		.file 12 "Drivers/STM32F1xx_HAL_Driver/Inc/stm32f1xx_hal_dma.h"
 166              		.file 13 "Drivers/STM32F1xx_HAL_Driver/Inc/stm32f1xx_hal_spi.h"
ARM GAS  /tmp/ccXA1n6j.s 			page 8


DEFINED SYMBOLS
                            *ABS*:0000000000000000 stm32f1xx_hal_spi_ex.c
     /tmp/ccXA1n6j.s:16     .text.HAL_SPI_Init:0000000000000000 $t
     /tmp/ccXA1n6j.s:23     .text.HAL_SPI_Init:0000000000000000 HAL_SPI_Init
     /tmp/ccXA1n6j.s:119    .text.HAL_SPI_Init:0000000000000078 $d
     /tmp/ccXA1n6j.s:124    .text.SPI_ISCRCErrorValid:0000000000000000 $t
     /tmp/ccXA1n6j.s:131    .text.SPI_ISCRCErrorValid:0000000000000000 SPI_ISCRCErrorValid
     /tmp/ccXA1n6j.s:151    .bss.uCRCErrorWorkaroundCheck:0000000000000000 uCRCErrorWorkaroundCheck
     /tmp/ccXA1n6j.s:152    .bss.uCRCErrorWorkaroundCheck:0000000000000000 $d
                     .debug_frame:0000000000000010 $d

UNDEFINED SYMBOLS
HAL_SPI_MspInit
