ARM GAS  /tmp/ccukyRaG.s 			page 1


   1              		.cpu cortex-m3
   2              		.eabi_attribute 20, 1
   3              		.eabi_attribute 21, 1
   4              		.eabi_attribute 23, 3
   5              		.eabi_attribute 24, 1
   6              		.eabi_attribute 25, 1
   7              		.eabi_attribute 26, 1
   8              		.eabi_attribute 30, 4
   9              		.eabi_attribute 34, 1
  10              		.eabi_attribute 18, 4
  11              		.file	"stm32f1xx_hal_rcc.c"
  12              		.text
  13              	.Ltext0:
  14              		.cfi_sections	.debug_frame
  15              		.section	.text.HAL_RCC_DeInit,"ax",%progbits
  16              		.align	1
  17              		.global	HAL_RCC_DeInit
  18              		.syntax unified
  19              		.thumb
  20              		.thumb_func
  21              		.fpu softvfp
  23              	HAL_RCC_DeInit:
  24              	.LFB64:
  25              		.file 1 "Drivers/STM32F1xx_HAL_Driver/Src/stm32f1xx_hal_rcc.c"
   1:Drivers/STM32F1xx_HAL_Driver/Src/stm32f1xx_hal_rcc.c **** /**
   2:Drivers/STM32F1xx_HAL_Driver/Src/stm32f1xx_hal_rcc.c ****   ******************************************************************************
   3:Drivers/STM32F1xx_HAL_Driver/Src/stm32f1xx_hal_rcc.c ****   * @file    stm32f1xx_hal_rcc.c
   4:Drivers/STM32F1xx_HAL_Driver/Src/stm32f1xx_hal_rcc.c ****   * @author  MCD Application Team
   5:Drivers/STM32F1xx_HAL_Driver/Src/stm32f1xx_hal_rcc.c ****   * @version V1.0.4
   6:Drivers/STM32F1xx_HAL_Driver/Src/stm32f1xx_hal_rcc.c ****   * @date    29-April-2016
   7:Drivers/STM32F1xx_HAL_Driver/Src/stm32f1xx_hal_rcc.c ****   * @brief   RCC HAL module driver.
   8:Drivers/STM32F1xx_HAL_Driver/Src/stm32f1xx_hal_rcc.c ****   *          This file provides firmware functions to manage the following 
   9:Drivers/STM32F1xx_HAL_Driver/Src/stm32f1xx_hal_rcc.c ****   *          functionalities of the Reset and Clock Control (RCC) peripheral:
  10:Drivers/STM32F1xx_HAL_Driver/Src/stm32f1xx_hal_rcc.c ****   *           + Initialization and de-initialization functions
  11:Drivers/STM32F1xx_HAL_Driver/Src/stm32f1xx_hal_rcc.c ****   *           + Peripheral Control functions
  12:Drivers/STM32F1xx_HAL_Driver/Src/stm32f1xx_hal_rcc.c ****   *       
  13:Drivers/STM32F1xx_HAL_Driver/Src/stm32f1xx_hal_rcc.c ****   @verbatim                
  14:Drivers/STM32F1xx_HAL_Driver/Src/stm32f1xx_hal_rcc.c ****   ==============================================================================
  15:Drivers/STM32F1xx_HAL_Driver/Src/stm32f1xx_hal_rcc.c ****                       ##### RCC specific features #####
  16:Drivers/STM32F1xx_HAL_Driver/Src/stm32f1xx_hal_rcc.c ****   ==============================================================================
  17:Drivers/STM32F1xx_HAL_Driver/Src/stm32f1xx_hal_rcc.c ****     [..]  
  18:Drivers/STM32F1xx_HAL_Driver/Src/stm32f1xx_hal_rcc.c ****       After reset the device is running from Internal High Speed oscillator
  19:Drivers/STM32F1xx_HAL_Driver/Src/stm32f1xx_hal_rcc.c ****       (HSI 8MHz) with Flash 0 wait state, Flash prefetch buffer is enabled, 
  20:Drivers/STM32F1xx_HAL_Driver/Src/stm32f1xx_hal_rcc.c ****       and all peripherals are off except internal SRAM, Flash and JTAG.
  21:Drivers/STM32F1xx_HAL_Driver/Src/stm32f1xx_hal_rcc.c ****       (+) There is no prescaler on High speed (AHB) and Low speed (APB) buses;
  22:Drivers/STM32F1xx_HAL_Driver/Src/stm32f1xx_hal_rcc.c ****           all peripherals mapped on these buses are running at HSI speed.
  23:Drivers/STM32F1xx_HAL_Driver/Src/stm32f1xx_hal_rcc.c ****       (+) The clock for all peripherals is switched off, except the SRAM and FLASH.
  24:Drivers/STM32F1xx_HAL_Driver/Src/stm32f1xx_hal_rcc.c ****       (+) All GPIOs are in input floating state, except the JTAG pins which
  25:Drivers/STM32F1xx_HAL_Driver/Src/stm32f1xx_hal_rcc.c ****           are assigned to be used for debug purpose.
  26:Drivers/STM32F1xx_HAL_Driver/Src/stm32f1xx_hal_rcc.c ****     [..] Once the device started from reset, the user application has to:
  27:Drivers/STM32F1xx_HAL_Driver/Src/stm32f1xx_hal_rcc.c ****       (+) Configure the clock source to be used to drive the System clock
  28:Drivers/STM32F1xx_HAL_Driver/Src/stm32f1xx_hal_rcc.c ****           (if the application needs higher frequency/performance)
  29:Drivers/STM32F1xx_HAL_Driver/Src/stm32f1xx_hal_rcc.c ****       (+) Configure the System clock frequency and Flash settings  
  30:Drivers/STM32F1xx_HAL_Driver/Src/stm32f1xx_hal_rcc.c ****       (+) Configure the AHB and APB buses prescalers
  31:Drivers/STM32F1xx_HAL_Driver/Src/stm32f1xx_hal_rcc.c ****       (+) Enable the clock for the peripheral(s) to be used
  32:Drivers/STM32F1xx_HAL_Driver/Src/stm32f1xx_hal_rcc.c ****       (+) Configure the clock source(s) for peripherals whose clocks are not
  33:Drivers/STM32F1xx_HAL_Driver/Src/stm32f1xx_hal_rcc.c ****           derived from the System clock (I2S, RTC, ADC, USB OTG FS) 
ARM GAS  /tmp/ccukyRaG.s 			page 2


  34:Drivers/STM32F1xx_HAL_Driver/Src/stm32f1xx_hal_rcc.c **** 
  35:Drivers/STM32F1xx_HAL_Driver/Src/stm32f1xx_hal_rcc.c ****                       ##### RCC Limitations #####
  36:Drivers/STM32F1xx_HAL_Driver/Src/stm32f1xx_hal_rcc.c ****   ==============================================================================
  37:Drivers/STM32F1xx_HAL_Driver/Src/stm32f1xx_hal_rcc.c ****     [..]  
  38:Drivers/STM32F1xx_HAL_Driver/Src/stm32f1xx_hal_rcc.c ****       A delay between an RCC peripheral clock enable and the effective peripheral 
  39:Drivers/STM32F1xx_HAL_Driver/Src/stm32f1xx_hal_rcc.c ****       enabling should be taken into account in order to manage the peripheral read/write 
  40:Drivers/STM32F1xx_HAL_Driver/Src/stm32f1xx_hal_rcc.c ****       from/to registers.
  41:Drivers/STM32F1xx_HAL_Driver/Src/stm32f1xx_hal_rcc.c ****       (+) This delay depends on the peripheral mapping.
  42:Drivers/STM32F1xx_HAL_Driver/Src/stm32f1xx_hal_rcc.c ****         (++) AHB & APB peripherals, 1 dummy read is necessary
  43:Drivers/STM32F1xx_HAL_Driver/Src/stm32f1xx_hal_rcc.c **** 
  44:Drivers/STM32F1xx_HAL_Driver/Src/stm32f1xx_hal_rcc.c ****     [..]  
  45:Drivers/STM32F1xx_HAL_Driver/Src/stm32f1xx_hal_rcc.c ****       Workarounds:
  46:Drivers/STM32F1xx_HAL_Driver/Src/stm32f1xx_hal_rcc.c ****       (#) For AHB & APB peripherals, a dummy read to the peripheral register has been
  47:Drivers/STM32F1xx_HAL_Driver/Src/stm32f1xx_hal_rcc.c ****           inserted in each __HAL_RCC_PPP_CLK_ENABLE() macro.
  48:Drivers/STM32F1xx_HAL_Driver/Src/stm32f1xx_hal_rcc.c **** 
  49:Drivers/STM32F1xx_HAL_Driver/Src/stm32f1xx_hal_rcc.c ****   @endverbatim
  50:Drivers/STM32F1xx_HAL_Driver/Src/stm32f1xx_hal_rcc.c ****   ******************************************************************************
  51:Drivers/STM32F1xx_HAL_Driver/Src/stm32f1xx_hal_rcc.c ****   * @attention
  52:Drivers/STM32F1xx_HAL_Driver/Src/stm32f1xx_hal_rcc.c ****   *
  53:Drivers/STM32F1xx_HAL_Driver/Src/stm32f1xx_hal_rcc.c ****   * <h2><center>&copy; COPYRIGHT(c) 2016 STMicroelectronics</center></h2>
  54:Drivers/STM32F1xx_HAL_Driver/Src/stm32f1xx_hal_rcc.c ****   *
  55:Drivers/STM32F1xx_HAL_Driver/Src/stm32f1xx_hal_rcc.c ****   * Redistribution and use in source and binary forms, with or without modification,
  56:Drivers/STM32F1xx_HAL_Driver/Src/stm32f1xx_hal_rcc.c ****   * are permitted provided that the following conditions are met:
  57:Drivers/STM32F1xx_HAL_Driver/Src/stm32f1xx_hal_rcc.c ****   *   1. Redistributions of source code must retain the above copyright notice,
  58:Drivers/STM32F1xx_HAL_Driver/Src/stm32f1xx_hal_rcc.c ****   *      this list of conditions and the following disclaimer.
  59:Drivers/STM32F1xx_HAL_Driver/Src/stm32f1xx_hal_rcc.c ****   *   2. Redistributions in binary form must reproduce the above copyright notice,
  60:Drivers/STM32F1xx_HAL_Driver/Src/stm32f1xx_hal_rcc.c ****   *      this list of conditions and the following disclaimer in the documentation
  61:Drivers/STM32F1xx_HAL_Driver/Src/stm32f1xx_hal_rcc.c ****   *      and/or other materials provided with the distribution.
  62:Drivers/STM32F1xx_HAL_Driver/Src/stm32f1xx_hal_rcc.c ****   *   3. Neither the name of STMicroelectronics nor the names of its contributors
  63:Drivers/STM32F1xx_HAL_Driver/Src/stm32f1xx_hal_rcc.c ****   *      may be used to endorse or promote products derived from this software
  64:Drivers/STM32F1xx_HAL_Driver/Src/stm32f1xx_hal_rcc.c ****   *      without specific prior written permission.
  65:Drivers/STM32F1xx_HAL_Driver/Src/stm32f1xx_hal_rcc.c ****   *
  66:Drivers/STM32F1xx_HAL_Driver/Src/stm32f1xx_hal_rcc.c ****   * THIS SOFTWARE IS PROVIDED BY THE COPYRIGHT HOLDERS AND CONTRIBUTORS "AS IS"
  67:Drivers/STM32F1xx_HAL_Driver/Src/stm32f1xx_hal_rcc.c ****   * AND ANY EXPRESS OR IMPLIED WARRANTIES, INCLUDING, BUT NOT LIMITED TO, THE
  68:Drivers/STM32F1xx_HAL_Driver/Src/stm32f1xx_hal_rcc.c ****   * IMPLIED WARRANTIES OF MERCHANTABILITY AND FITNESS FOR A PARTICULAR PURPOSE ARE
  69:Drivers/STM32F1xx_HAL_Driver/Src/stm32f1xx_hal_rcc.c ****   * DISCLAIMED. IN NO EVENT SHALL THE COPYRIGHT HOLDER OR CONTRIBUTORS BE LIABLE
  70:Drivers/STM32F1xx_HAL_Driver/Src/stm32f1xx_hal_rcc.c ****   * FOR ANY DIRECT, INDIRECT, INCIDENTAL, SPECIAL, EXEMPLARY, OR CONSEQUENTIAL
  71:Drivers/STM32F1xx_HAL_Driver/Src/stm32f1xx_hal_rcc.c ****   * DAMAGES (INCLUDING, BUT NOT LIMITED TO, PROCUREMENT OF SUBSTITUTE GOODS OR
  72:Drivers/STM32F1xx_HAL_Driver/Src/stm32f1xx_hal_rcc.c ****   * SERVICES; LOSS OF USE, DATA, OR PROFITS; OR BUSINESS INTERRUPTION) HOWEVER
  73:Drivers/STM32F1xx_HAL_Driver/Src/stm32f1xx_hal_rcc.c ****   * CAUSED AND ON ANY THEORY OF LIABILITY, WHETHER IN CONTRACT, STRICT LIABILITY,
  74:Drivers/STM32F1xx_HAL_Driver/Src/stm32f1xx_hal_rcc.c ****   * OR TORT (INCLUDING NEGLIGENCE OR OTHERWISE) ARISING IN ANY WAY OUT OF THE USE
  75:Drivers/STM32F1xx_HAL_Driver/Src/stm32f1xx_hal_rcc.c ****   * OF THIS SOFTWARE, EVEN IF ADVISED OF THE POSSIBILITY OF SUCH DAMAGE.
  76:Drivers/STM32F1xx_HAL_Driver/Src/stm32f1xx_hal_rcc.c ****   *
  77:Drivers/STM32F1xx_HAL_Driver/Src/stm32f1xx_hal_rcc.c ****   ******************************************************************************  
  78:Drivers/STM32F1xx_HAL_Driver/Src/stm32f1xx_hal_rcc.c **** */
  79:Drivers/STM32F1xx_HAL_Driver/Src/stm32f1xx_hal_rcc.c ****   
  80:Drivers/STM32F1xx_HAL_Driver/Src/stm32f1xx_hal_rcc.c **** /* Includes ------------------------------------------------------------------*/
  81:Drivers/STM32F1xx_HAL_Driver/Src/stm32f1xx_hal_rcc.c **** #include "stm32f1xx_hal.h"
  82:Drivers/STM32F1xx_HAL_Driver/Src/stm32f1xx_hal_rcc.c **** 
  83:Drivers/STM32F1xx_HAL_Driver/Src/stm32f1xx_hal_rcc.c **** /** @addtogroup STM32F1xx_HAL_Driver
  84:Drivers/STM32F1xx_HAL_Driver/Src/stm32f1xx_hal_rcc.c ****   * @{
  85:Drivers/STM32F1xx_HAL_Driver/Src/stm32f1xx_hal_rcc.c ****   */
  86:Drivers/STM32F1xx_HAL_Driver/Src/stm32f1xx_hal_rcc.c **** 
  87:Drivers/STM32F1xx_HAL_Driver/Src/stm32f1xx_hal_rcc.c **** /** @defgroup RCC RCC
  88:Drivers/STM32F1xx_HAL_Driver/Src/stm32f1xx_hal_rcc.c **** * @brief RCC HAL module driver
  89:Drivers/STM32F1xx_HAL_Driver/Src/stm32f1xx_hal_rcc.c ****   * @{
  90:Drivers/STM32F1xx_HAL_Driver/Src/stm32f1xx_hal_rcc.c ****   */
ARM GAS  /tmp/ccukyRaG.s 			page 3


  91:Drivers/STM32F1xx_HAL_Driver/Src/stm32f1xx_hal_rcc.c **** 
  92:Drivers/STM32F1xx_HAL_Driver/Src/stm32f1xx_hal_rcc.c **** #ifdef HAL_RCC_MODULE_ENABLED
  93:Drivers/STM32F1xx_HAL_Driver/Src/stm32f1xx_hal_rcc.c **** 
  94:Drivers/STM32F1xx_HAL_Driver/Src/stm32f1xx_hal_rcc.c **** /* Private typedef -----------------------------------------------------------*/
  95:Drivers/STM32F1xx_HAL_Driver/Src/stm32f1xx_hal_rcc.c **** /* Private define ------------------------------------------------------------*/
  96:Drivers/STM32F1xx_HAL_Driver/Src/stm32f1xx_hal_rcc.c **** /** @defgroup RCC_Private_Constants RCC Private Constants
  97:Drivers/STM32F1xx_HAL_Driver/Src/stm32f1xx_hal_rcc.c ****  * @{
  98:Drivers/STM32F1xx_HAL_Driver/Src/stm32f1xx_hal_rcc.c ****  */
  99:Drivers/STM32F1xx_HAL_Driver/Src/stm32f1xx_hal_rcc.c **** /* Bits position in  in the CFGR register */
 100:Drivers/STM32F1xx_HAL_Driver/Src/stm32f1xx_hal_rcc.c **** #define RCC_CFGR_HPRE_BITNUMBER           POSITION_VAL(RCC_CFGR_HPRE)
 101:Drivers/STM32F1xx_HAL_Driver/Src/stm32f1xx_hal_rcc.c **** #define RCC_CFGR_PPRE1_BITNUMBER          POSITION_VAL(RCC_CFGR_PPRE1)
 102:Drivers/STM32F1xx_HAL_Driver/Src/stm32f1xx_hal_rcc.c **** #define RCC_CFGR_PPRE2_BITNUMBER          POSITION_VAL(RCC_CFGR_PPRE2)
 103:Drivers/STM32F1xx_HAL_Driver/Src/stm32f1xx_hal_rcc.c **** /**
 104:Drivers/STM32F1xx_HAL_Driver/Src/stm32f1xx_hal_rcc.c ****   * @}
 105:Drivers/STM32F1xx_HAL_Driver/Src/stm32f1xx_hal_rcc.c ****   */
 106:Drivers/STM32F1xx_HAL_Driver/Src/stm32f1xx_hal_rcc.c **** /* Private macro -------------------------------------------------------------*/
 107:Drivers/STM32F1xx_HAL_Driver/Src/stm32f1xx_hal_rcc.c **** /** @defgroup RCC_Private_Macros RCC Private Macros
 108:Drivers/STM32F1xx_HAL_Driver/Src/stm32f1xx_hal_rcc.c ****   * @{
 109:Drivers/STM32F1xx_HAL_Driver/Src/stm32f1xx_hal_rcc.c ****   */
 110:Drivers/STM32F1xx_HAL_Driver/Src/stm32f1xx_hal_rcc.c **** 
 111:Drivers/STM32F1xx_HAL_Driver/Src/stm32f1xx_hal_rcc.c **** #define MCO1_CLK_ENABLE()     __HAL_RCC_GPIOA_CLK_ENABLE()
 112:Drivers/STM32F1xx_HAL_Driver/Src/stm32f1xx_hal_rcc.c **** #define MCO1_GPIO_PORT        GPIOA
 113:Drivers/STM32F1xx_HAL_Driver/Src/stm32f1xx_hal_rcc.c **** #define MCO1_PIN              GPIO_PIN_8
 114:Drivers/STM32F1xx_HAL_Driver/Src/stm32f1xx_hal_rcc.c **** 
 115:Drivers/STM32F1xx_HAL_Driver/Src/stm32f1xx_hal_rcc.c **** /**
 116:Drivers/STM32F1xx_HAL_Driver/Src/stm32f1xx_hal_rcc.c ****   * @}
 117:Drivers/STM32F1xx_HAL_Driver/Src/stm32f1xx_hal_rcc.c ****   */
 118:Drivers/STM32F1xx_HAL_Driver/Src/stm32f1xx_hal_rcc.c **** 
 119:Drivers/STM32F1xx_HAL_Driver/Src/stm32f1xx_hal_rcc.c **** /* Private variables ---------------------------------------------------------*/
 120:Drivers/STM32F1xx_HAL_Driver/Src/stm32f1xx_hal_rcc.c **** /** @defgroup RCC_Private_Variables RCC Private Variables
 121:Drivers/STM32F1xx_HAL_Driver/Src/stm32f1xx_hal_rcc.c ****   * @{
 122:Drivers/STM32F1xx_HAL_Driver/Src/stm32f1xx_hal_rcc.c ****   */
 123:Drivers/STM32F1xx_HAL_Driver/Src/stm32f1xx_hal_rcc.c **** /**
 124:Drivers/STM32F1xx_HAL_Driver/Src/stm32f1xx_hal_rcc.c ****   * @}
 125:Drivers/STM32F1xx_HAL_Driver/Src/stm32f1xx_hal_rcc.c ****   */
 126:Drivers/STM32F1xx_HAL_Driver/Src/stm32f1xx_hal_rcc.c **** 
 127:Drivers/STM32F1xx_HAL_Driver/Src/stm32f1xx_hal_rcc.c **** /* Private function prototypes -----------------------------------------------*/
 128:Drivers/STM32F1xx_HAL_Driver/Src/stm32f1xx_hal_rcc.c **** /* Exported functions ---------------------------------------------------------*/
 129:Drivers/STM32F1xx_HAL_Driver/Src/stm32f1xx_hal_rcc.c **** 
 130:Drivers/STM32F1xx_HAL_Driver/Src/stm32f1xx_hal_rcc.c **** /** @defgroup RCC_Exported_Functions RCC Exported Functions
 131:Drivers/STM32F1xx_HAL_Driver/Src/stm32f1xx_hal_rcc.c ****   * @{
 132:Drivers/STM32F1xx_HAL_Driver/Src/stm32f1xx_hal_rcc.c ****   */
 133:Drivers/STM32F1xx_HAL_Driver/Src/stm32f1xx_hal_rcc.c **** 
 134:Drivers/STM32F1xx_HAL_Driver/Src/stm32f1xx_hal_rcc.c **** /** @defgroup RCC_Exported_Functions_Group1 Initialization and de-initialization functions 
 135:Drivers/STM32F1xx_HAL_Driver/Src/stm32f1xx_hal_rcc.c ****   *  @brief    Initialization and Configuration functions 
 136:Drivers/STM32F1xx_HAL_Driver/Src/stm32f1xx_hal_rcc.c ****   *
 137:Drivers/STM32F1xx_HAL_Driver/Src/stm32f1xx_hal_rcc.c ****   @verbatim    
 138:Drivers/STM32F1xx_HAL_Driver/Src/stm32f1xx_hal_rcc.c ****   ===============================================================================
 139:Drivers/STM32F1xx_HAL_Driver/Src/stm32f1xx_hal_rcc.c ****            ##### Initialization and de-initialization functions #####
 140:Drivers/STM32F1xx_HAL_Driver/Src/stm32f1xx_hal_rcc.c ****   ===============================================================================
 141:Drivers/STM32F1xx_HAL_Driver/Src/stm32f1xx_hal_rcc.c ****     [..]
 142:Drivers/STM32F1xx_HAL_Driver/Src/stm32f1xx_hal_rcc.c ****       This section provides functions allowing to configure the internal/external oscillators
 143:Drivers/STM32F1xx_HAL_Driver/Src/stm32f1xx_hal_rcc.c ****       (HSE, HSI, LSE, LSI, PLL, CSS and MCO) and the System buses clocks (SYSCLK, AHB, APB1
 144:Drivers/STM32F1xx_HAL_Driver/Src/stm32f1xx_hal_rcc.c ****       and APB2).
 145:Drivers/STM32F1xx_HAL_Driver/Src/stm32f1xx_hal_rcc.c **** 
 146:Drivers/STM32F1xx_HAL_Driver/Src/stm32f1xx_hal_rcc.c ****     [..] Internal/external clock and PLL configuration
 147:Drivers/STM32F1xx_HAL_Driver/Src/stm32f1xx_hal_rcc.c ****       (#) HSI (high-speed internal), 8 MHz factory-trimmed RC used directly or through
ARM GAS  /tmp/ccukyRaG.s 			page 4


 148:Drivers/STM32F1xx_HAL_Driver/Src/stm32f1xx_hal_rcc.c ****           the PLL as System clock source.
 149:Drivers/STM32F1xx_HAL_Driver/Src/stm32f1xx_hal_rcc.c ****       (#) LSI (low-speed internal), ~40 KHz low consumption RC used as IWDG and/or RTC
 150:Drivers/STM32F1xx_HAL_Driver/Src/stm32f1xx_hal_rcc.c ****           clock source.
 151:Drivers/STM32F1xx_HAL_Driver/Src/stm32f1xx_hal_rcc.c **** 
 152:Drivers/STM32F1xx_HAL_Driver/Src/stm32f1xx_hal_rcc.c ****       (#) HSE (high-speed external), 4 to 24 MHz (STM32F100xx) or 4 to 16 MHz (STM32F101x/STM32F102
 153:Drivers/STM32F1xx_HAL_Driver/Src/stm32f1xx_hal_rcc.c ****           through the PLL as System clock source. Can be used also as RTC clock source.
 154:Drivers/STM32F1xx_HAL_Driver/Src/stm32f1xx_hal_rcc.c **** 
 155:Drivers/STM32F1xx_HAL_Driver/Src/stm32f1xx_hal_rcc.c ****       (#) LSE (low-speed external), 32 KHz oscillator used as RTC clock source.   
 156:Drivers/STM32F1xx_HAL_Driver/Src/stm32f1xx_hal_rcc.c **** 
 157:Drivers/STM32F1xx_HAL_Driver/Src/stm32f1xx_hal_rcc.c ****       (#) PLL (clocked by HSI or HSE), featuring different output clocks:
 158:Drivers/STM32F1xx_HAL_Driver/Src/stm32f1xx_hal_rcc.c ****         (++) The first output is used to generate the high speed system clock (up to 72 MHz for STM
 159:Drivers/STM32F1xx_HAL_Driver/Src/stm32f1xx_hal_rcc.c ****         (++) The second output is used to generate the clock for the USB OTG FS (48 MHz)
 160:Drivers/STM32F1xx_HAL_Driver/Src/stm32f1xx_hal_rcc.c **** 
 161:Drivers/STM32F1xx_HAL_Driver/Src/stm32f1xx_hal_rcc.c ****       (#) CSS (Clock security system), once enable using the macro __HAL_RCC_CSS_ENABLE()
 162:Drivers/STM32F1xx_HAL_Driver/Src/stm32f1xx_hal_rcc.c ****           and if a HSE clock failure occurs(HSE used directly or through PLL as System 
 163:Drivers/STM32F1xx_HAL_Driver/Src/stm32f1xx_hal_rcc.c ****           clock source), the System clocks automatically switched to HSI and an interrupt
 164:Drivers/STM32F1xx_HAL_Driver/Src/stm32f1xx_hal_rcc.c ****           is generated if enabled. The interrupt is linked to the Cortex-M3 NMI 
 165:Drivers/STM32F1xx_HAL_Driver/Src/stm32f1xx_hal_rcc.c ****           (Non-Maskable Interrupt) exception vector.   
 166:Drivers/STM32F1xx_HAL_Driver/Src/stm32f1xx_hal_rcc.c **** 
 167:Drivers/STM32F1xx_HAL_Driver/Src/stm32f1xx_hal_rcc.c ****       (#) MCO1 (microcontroller clock output), used to output SYSCLK, HSI,  
 168:Drivers/STM32F1xx_HAL_Driver/Src/stm32f1xx_hal_rcc.c ****           HSE or PLL clock (divided by 2) on PA8 pin + PLL2CLK, PLL3CLK/2, PLL3CLK and XTI for STM3
 169:Drivers/STM32F1xx_HAL_Driver/Src/stm32f1xx_hal_rcc.c **** 
 170:Drivers/STM32F1xx_HAL_Driver/Src/stm32f1xx_hal_rcc.c ****     [..] System, AHB and APB buses clocks configuration
 171:Drivers/STM32F1xx_HAL_Driver/Src/stm32f1xx_hal_rcc.c ****       (#) Several clock sources can be used to drive the System clock (SYSCLK): HSI,
 172:Drivers/STM32F1xx_HAL_Driver/Src/stm32f1xx_hal_rcc.c ****           HSE and PLL.
 173:Drivers/STM32F1xx_HAL_Driver/Src/stm32f1xx_hal_rcc.c ****           The AHB clock (HCLK) is derived from System clock through configurable
 174:Drivers/STM32F1xx_HAL_Driver/Src/stm32f1xx_hal_rcc.c ****           prescaler and used to clock the CPU, memory and peripherals mapped
 175:Drivers/STM32F1xx_HAL_Driver/Src/stm32f1xx_hal_rcc.c ****           on AHB bus (DMA, GPIO...). APB1 (PCLK1) and APB2 (PCLK2) clocks are derived
 176:Drivers/STM32F1xx_HAL_Driver/Src/stm32f1xx_hal_rcc.c ****           from AHB clock through configurable prescalers and used to clock
 177:Drivers/STM32F1xx_HAL_Driver/Src/stm32f1xx_hal_rcc.c ****           the peripherals mapped on these buses. You can use
 178:Drivers/STM32F1xx_HAL_Driver/Src/stm32f1xx_hal_rcc.c ****           "@ref HAL_RCC_GetSysClockFreq()" function to retrieve the frequencies of these clocks.
 179:Drivers/STM32F1xx_HAL_Driver/Src/stm32f1xx_hal_rcc.c **** 
 180:Drivers/STM32F1xx_HAL_Driver/Src/stm32f1xx_hal_rcc.c ****       -@- All the peripheral clocks are derived from the System clock (SYSCLK) except:
 181:Drivers/STM32F1xx_HAL_Driver/Src/stm32f1xx_hal_rcc.c ****           (+@) RTC: RTC clock can be derived either from the LSI, LSE or HSE clock
 182:Drivers/STM32F1xx_HAL_Driver/Src/stm32f1xx_hal_rcc.c ****               divided by 128. 
 183:Drivers/STM32F1xx_HAL_Driver/Src/stm32f1xx_hal_rcc.c ****           (+@) USB OTG FS and RTC: USB OTG FS require a frequency equal to 48 MHz
 184:Drivers/STM32F1xx_HAL_Driver/Src/stm32f1xx_hal_rcc.c ****               to work correctly. This clock is derived of the main PLL through PLL Multiplier.
 185:Drivers/STM32F1xx_HAL_Driver/Src/stm32f1xx_hal_rcc.c ****           (+@) I2S interface on STM32F105x/STM32F107x can be derived from PLL3CLK
 186:Drivers/STM32F1xx_HAL_Driver/Src/stm32f1xx_hal_rcc.c ****           (+@) IWDG clock which is always the LSI clock.
 187:Drivers/STM32F1xx_HAL_Driver/Src/stm32f1xx_hal_rcc.c **** 
 188:Drivers/STM32F1xx_HAL_Driver/Src/stm32f1xx_hal_rcc.c ****       (#) For STM32F10xxx, the maximum frequency of the SYSCLK and HCLK/PCLK2 is 72 MHz, PCLK1 36 M
 189:Drivers/STM32F1xx_HAL_Driver/Src/stm32f1xx_hal_rcc.c ****           For STM32F100xx, the maximum frequency of the SYSCLK and HCLK/PCLK1/PCLK2 is 24 MHz.  
 190:Drivers/STM32F1xx_HAL_Driver/Src/stm32f1xx_hal_rcc.c ****           Depending on the SYSCLK frequency, the flash latency should be adapted accordingly.
 191:Drivers/STM32F1xx_HAL_Driver/Src/stm32f1xx_hal_rcc.c ****   @endverbatim
 192:Drivers/STM32F1xx_HAL_Driver/Src/stm32f1xx_hal_rcc.c ****   * @{
 193:Drivers/STM32F1xx_HAL_Driver/Src/stm32f1xx_hal_rcc.c ****   */
 194:Drivers/STM32F1xx_HAL_Driver/Src/stm32f1xx_hal_rcc.c ****   
 195:Drivers/STM32F1xx_HAL_Driver/Src/stm32f1xx_hal_rcc.c **** /*
 196:Drivers/STM32F1xx_HAL_Driver/Src/stm32f1xx_hal_rcc.c ****   Additional consideration on the SYSCLK based on Latency settings:
 197:Drivers/STM32F1xx_HAL_Driver/Src/stm32f1xx_hal_rcc.c ****         +-----------------------------------------------+
 198:Drivers/STM32F1xx_HAL_Driver/Src/stm32f1xx_hal_rcc.c ****         | Latency       | SYSCLK clock frequency (MHz)  |
 199:Drivers/STM32F1xx_HAL_Driver/Src/stm32f1xx_hal_rcc.c ****         |---------------|-------------------------------|
 200:Drivers/STM32F1xx_HAL_Driver/Src/stm32f1xx_hal_rcc.c ****         |0WS(1CPU cycle)|       0 < SYSCLK <= 24        |
 201:Drivers/STM32F1xx_HAL_Driver/Src/stm32f1xx_hal_rcc.c ****         |---------------|-------------------------------|
 202:Drivers/STM32F1xx_HAL_Driver/Src/stm32f1xx_hal_rcc.c ****         |1WS(2CPU cycle)|      24 < SYSCLK <= 48        |
 203:Drivers/STM32F1xx_HAL_Driver/Src/stm32f1xx_hal_rcc.c ****         |---------------|-------------------------------|
 204:Drivers/STM32F1xx_HAL_Driver/Src/stm32f1xx_hal_rcc.c ****         |2WS(3CPU cycle)|      48 < SYSCLK <= 72        |
ARM GAS  /tmp/ccukyRaG.s 			page 5


 205:Drivers/STM32F1xx_HAL_Driver/Src/stm32f1xx_hal_rcc.c ****         +-----------------------------------------------+
 206:Drivers/STM32F1xx_HAL_Driver/Src/stm32f1xx_hal_rcc.c ****   */
 207:Drivers/STM32F1xx_HAL_Driver/Src/stm32f1xx_hal_rcc.c **** 
 208:Drivers/STM32F1xx_HAL_Driver/Src/stm32f1xx_hal_rcc.c **** /**
 209:Drivers/STM32F1xx_HAL_Driver/Src/stm32f1xx_hal_rcc.c ****   * @brief  Resets the RCC clock configuration to the default reset state.
 210:Drivers/STM32F1xx_HAL_Driver/Src/stm32f1xx_hal_rcc.c ****   * @note   The default reset state of the clock configuration is given below:
 211:Drivers/STM32F1xx_HAL_Driver/Src/stm32f1xx_hal_rcc.c ****   *            - HSI ON and used as system clock source
 212:Drivers/STM32F1xx_HAL_Driver/Src/stm32f1xx_hal_rcc.c ****   *            - HSE and PLL OFF
 213:Drivers/STM32F1xx_HAL_Driver/Src/stm32f1xx_hal_rcc.c ****   *            - AHB, APB1 and APB2 prescaler set to 1.
 214:Drivers/STM32F1xx_HAL_Driver/Src/stm32f1xx_hal_rcc.c ****   *            - CSS and MCO1 OFF
 215:Drivers/STM32F1xx_HAL_Driver/Src/stm32f1xx_hal_rcc.c ****   *            - All interrupts disabled
 216:Drivers/STM32F1xx_HAL_Driver/Src/stm32f1xx_hal_rcc.c ****   * @note   This function does not modify the configuration of the
 217:Drivers/STM32F1xx_HAL_Driver/Src/stm32f1xx_hal_rcc.c ****   *            - Peripheral clocks
 218:Drivers/STM32F1xx_HAL_Driver/Src/stm32f1xx_hal_rcc.c ****   *            - LSI, LSE and RTC clocks
 219:Drivers/STM32F1xx_HAL_Driver/Src/stm32f1xx_hal_rcc.c ****   * @retval None
 220:Drivers/STM32F1xx_HAL_Driver/Src/stm32f1xx_hal_rcc.c ****   */
 221:Drivers/STM32F1xx_HAL_Driver/Src/stm32f1xx_hal_rcc.c **** void HAL_RCC_DeInit(void)
 222:Drivers/STM32F1xx_HAL_Driver/Src/stm32f1xx_hal_rcc.c **** {
  26              		.loc 1 222 0
  27              		.cfi_startproc
  28              		@ args = 0, pretend = 0, frame = 0
  29              		@ frame_needed = 0, uses_anonymous_args = 0
  30 0000 10B5     		push	{r4, lr}
  31              	.LCFI0:
  32              		.cfi_def_cfa_offset 8
  33              		.cfi_offset 4, -8
  34              		.cfi_offset 14, -4
 223:Drivers/STM32F1xx_HAL_Driver/Src/stm32f1xx_hal_rcc.c ****   /* Switch SYSCLK to HSI */
 224:Drivers/STM32F1xx_HAL_Driver/Src/stm32f1xx_hal_rcc.c ****   CLEAR_BIT(RCC->CFGR, RCC_CFGR_SW);
 225:Drivers/STM32F1xx_HAL_Driver/Src/stm32f1xx_hal_rcc.c **** 
 226:Drivers/STM32F1xx_HAL_Driver/Src/stm32f1xx_hal_rcc.c ****   /* Reset HSEON, CSSON, & PLLON bits */
 227:Drivers/STM32F1xx_HAL_Driver/Src/stm32f1xx_hal_rcc.c ****   CLEAR_BIT(RCC->CR, RCC_CR_HSEON | RCC_CR_CSSON | RCC_CR_PLLON);
 228:Drivers/STM32F1xx_HAL_Driver/Src/stm32f1xx_hal_rcc.c ****   
 229:Drivers/STM32F1xx_HAL_Driver/Src/stm32f1xx_hal_rcc.c ****   /* Reset HSEBYP bit */
 230:Drivers/STM32F1xx_HAL_Driver/Src/stm32f1xx_hal_rcc.c ****   CLEAR_BIT(RCC->CR, RCC_CR_HSEBYP);
 231:Drivers/STM32F1xx_HAL_Driver/Src/stm32f1xx_hal_rcc.c ****   
 232:Drivers/STM32F1xx_HAL_Driver/Src/stm32f1xx_hal_rcc.c ****   /* Reset CFGR register */
 233:Drivers/STM32F1xx_HAL_Driver/Src/stm32f1xx_hal_rcc.c ****   CLEAR_REG(RCC->CFGR);
  35              		.loc 1 233 0
  36 0002 0024     		movs	r4, #0
 224:Drivers/STM32F1xx_HAL_Driver/Src/stm32f1xx_hal_rcc.c **** 
  37              		.loc 1 224 0
  38 0004 104B     		ldr	r3, .L2
  39              	.LBB143:
  40              	.LBB144:
  41              		.file 2 "Drivers/CMSIS/Include/cmsis_gcc.h"
   1:Drivers/CMSIS/Include/cmsis_gcc.h **** /**************************************************************************//**
   2:Drivers/CMSIS/Include/cmsis_gcc.h ****  * @file     cmsis_gcc.h
   3:Drivers/CMSIS/Include/cmsis_gcc.h ****  * @brief    CMSIS Cortex-M Core Function/Instruction Header File
   4:Drivers/CMSIS/Include/cmsis_gcc.h ****  * @version  V4.30
   5:Drivers/CMSIS/Include/cmsis_gcc.h ****  * @date     20. October 2015
   6:Drivers/CMSIS/Include/cmsis_gcc.h ****  ******************************************************************************/
   7:Drivers/CMSIS/Include/cmsis_gcc.h **** /* Copyright (c) 2009 - 2015 ARM LIMITED
   8:Drivers/CMSIS/Include/cmsis_gcc.h **** 
   9:Drivers/CMSIS/Include/cmsis_gcc.h ****    All rights reserved.
  10:Drivers/CMSIS/Include/cmsis_gcc.h ****    Redistribution and use in source and binary forms, with or without
  11:Drivers/CMSIS/Include/cmsis_gcc.h ****    modification, are permitted provided that the following conditions are met:
ARM GAS  /tmp/ccukyRaG.s 			page 6


  12:Drivers/CMSIS/Include/cmsis_gcc.h ****    - Redistributions of source code must retain the above copyright
  13:Drivers/CMSIS/Include/cmsis_gcc.h ****      notice, this list of conditions and the following disclaimer.
  14:Drivers/CMSIS/Include/cmsis_gcc.h ****    - Redistributions in binary form must reproduce the above copyright
  15:Drivers/CMSIS/Include/cmsis_gcc.h ****      notice, this list of conditions and the following disclaimer in the
  16:Drivers/CMSIS/Include/cmsis_gcc.h ****      documentation and/or other materials provided with the distribution.
  17:Drivers/CMSIS/Include/cmsis_gcc.h ****    - Neither the name of ARM nor the names of its contributors may be used
  18:Drivers/CMSIS/Include/cmsis_gcc.h ****      to endorse or promote products derived from this software without
  19:Drivers/CMSIS/Include/cmsis_gcc.h ****      specific prior written permission.
  20:Drivers/CMSIS/Include/cmsis_gcc.h ****    *
  21:Drivers/CMSIS/Include/cmsis_gcc.h ****    THIS SOFTWARE IS PROVIDED BY THE COPYRIGHT HOLDERS AND CONTRIBUTORS "AS IS"
  22:Drivers/CMSIS/Include/cmsis_gcc.h ****    AND ANY EXPRESS OR IMPLIED WARRANTIES, INCLUDING, BUT NOT LIMITED TO, THE
  23:Drivers/CMSIS/Include/cmsis_gcc.h ****    IMPLIED WARRANTIES OF MERCHANTABILITY AND FITNESS FOR A PARTICULAR PURPOSE
  24:Drivers/CMSIS/Include/cmsis_gcc.h ****    ARE DISCLAIMED. IN NO EVENT SHALL COPYRIGHT HOLDERS AND CONTRIBUTORS BE
  25:Drivers/CMSIS/Include/cmsis_gcc.h ****    LIABLE FOR ANY DIRECT, INDIRECT, INCIDENTAL, SPECIAL, EXEMPLARY, OR
  26:Drivers/CMSIS/Include/cmsis_gcc.h ****    CONSEQUENTIAL DAMAGES (INCLUDING, BUT NOT LIMITED TO, PROCUREMENT OF
  27:Drivers/CMSIS/Include/cmsis_gcc.h ****    SUBSTITUTE GOODS OR SERVICES; LOSS OF USE, DATA, OR PROFITS; OR BUSINESS
  28:Drivers/CMSIS/Include/cmsis_gcc.h ****    INTERRUPTION) HOWEVER CAUSED AND ON ANY THEORY OF LIABILITY, WHETHER IN
  29:Drivers/CMSIS/Include/cmsis_gcc.h ****    CONTRACT, STRICT LIABILITY, OR TORT (INCLUDING NEGLIGENCE OR OTHERWISE)
  30:Drivers/CMSIS/Include/cmsis_gcc.h ****    ARISING IN ANY WAY OUT OF THE USE OF THIS SOFTWARE, EVEN IF ADVISED OF THE
  31:Drivers/CMSIS/Include/cmsis_gcc.h ****    POSSIBILITY OF SUCH DAMAGE.
  32:Drivers/CMSIS/Include/cmsis_gcc.h ****    ---------------------------------------------------------------------------*/
  33:Drivers/CMSIS/Include/cmsis_gcc.h **** 
  34:Drivers/CMSIS/Include/cmsis_gcc.h **** 
  35:Drivers/CMSIS/Include/cmsis_gcc.h **** #ifndef __CMSIS_GCC_H
  36:Drivers/CMSIS/Include/cmsis_gcc.h **** #define __CMSIS_GCC_H
  37:Drivers/CMSIS/Include/cmsis_gcc.h **** 
  38:Drivers/CMSIS/Include/cmsis_gcc.h **** /* ignore some GCC warnings */
  39:Drivers/CMSIS/Include/cmsis_gcc.h **** #if defined ( __GNUC__ )
  40:Drivers/CMSIS/Include/cmsis_gcc.h **** #pragma GCC diagnostic push
  41:Drivers/CMSIS/Include/cmsis_gcc.h **** #pragma GCC diagnostic ignored "-Wsign-conversion"
  42:Drivers/CMSIS/Include/cmsis_gcc.h **** #pragma GCC diagnostic ignored "-Wconversion"
  43:Drivers/CMSIS/Include/cmsis_gcc.h **** #pragma GCC diagnostic ignored "-Wunused-parameter"
  44:Drivers/CMSIS/Include/cmsis_gcc.h **** #endif
  45:Drivers/CMSIS/Include/cmsis_gcc.h **** 
  46:Drivers/CMSIS/Include/cmsis_gcc.h **** 
  47:Drivers/CMSIS/Include/cmsis_gcc.h **** /* ###########################  Core Function Access  ########################### */
  48:Drivers/CMSIS/Include/cmsis_gcc.h **** /** \ingroup  CMSIS_Core_FunctionInterface
  49:Drivers/CMSIS/Include/cmsis_gcc.h ****     \defgroup CMSIS_Core_RegAccFunctions CMSIS Core Register Access Functions
  50:Drivers/CMSIS/Include/cmsis_gcc.h ****   @{
  51:Drivers/CMSIS/Include/cmsis_gcc.h ****  */
  52:Drivers/CMSIS/Include/cmsis_gcc.h **** 
  53:Drivers/CMSIS/Include/cmsis_gcc.h **** /**
  54:Drivers/CMSIS/Include/cmsis_gcc.h ****   \brief   Enable IRQ Interrupts
  55:Drivers/CMSIS/Include/cmsis_gcc.h ****   \details Enables IRQ interrupts by clearing the I-bit in the CPSR.
  56:Drivers/CMSIS/Include/cmsis_gcc.h ****            Can only be executed in Privileged modes.
  57:Drivers/CMSIS/Include/cmsis_gcc.h ****  */
  58:Drivers/CMSIS/Include/cmsis_gcc.h **** __attribute__( ( always_inline ) ) __STATIC_INLINE void __enable_irq(void)
  59:Drivers/CMSIS/Include/cmsis_gcc.h **** {
  60:Drivers/CMSIS/Include/cmsis_gcc.h ****   __ASM volatile ("cpsie i" : : : "memory");
  61:Drivers/CMSIS/Include/cmsis_gcc.h **** }
  62:Drivers/CMSIS/Include/cmsis_gcc.h **** 
  63:Drivers/CMSIS/Include/cmsis_gcc.h **** 
  64:Drivers/CMSIS/Include/cmsis_gcc.h **** /**
  65:Drivers/CMSIS/Include/cmsis_gcc.h ****   \brief   Disable IRQ Interrupts
  66:Drivers/CMSIS/Include/cmsis_gcc.h ****   \details Disables IRQ interrupts by setting the I-bit in the CPSR.
  67:Drivers/CMSIS/Include/cmsis_gcc.h ****   Can only be executed in Privileged modes.
  68:Drivers/CMSIS/Include/cmsis_gcc.h ****  */
ARM GAS  /tmp/ccukyRaG.s 			page 7


  69:Drivers/CMSIS/Include/cmsis_gcc.h **** __attribute__( ( always_inline ) ) __STATIC_INLINE void __disable_irq(void)
  70:Drivers/CMSIS/Include/cmsis_gcc.h **** {
  71:Drivers/CMSIS/Include/cmsis_gcc.h ****   __ASM volatile ("cpsid i" : : : "memory");
  72:Drivers/CMSIS/Include/cmsis_gcc.h **** }
  73:Drivers/CMSIS/Include/cmsis_gcc.h **** 
  74:Drivers/CMSIS/Include/cmsis_gcc.h **** 
  75:Drivers/CMSIS/Include/cmsis_gcc.h **** /**
  76:Drivers/CMSIS/Include/cmsis_gcc.h ****   \brief   Get Control Register
  77:Drivers/CMSIS/Include/cmsis_gcc.h ****   \details Returns the content of the Control Register.
  78:Drivers/CMSIS/Include/cmsis_gcc.h ****   \return               Control Register value
  79:Drivers/CMSIS/Include/cmsis_gcc.h ****  */
  80:Drivers/CMSIS/Include/cmsis_gcc.h **** __attribute__( ( always_inline ) ) __STATIC_INLINE uint32_t __get_CONTROL(void)
  81:Drivers/CMSIS/Include/cmsis_gcc.h **** {
  82:Drivers/CMSIS/Include/cmsis_gcc.h ****   uint32_t result;
  83:Drivers/CMSIS/Include/cmsis_gcc.h **** 
  84:Drivers/CMSIS/Include/cmsis_gcc.h ****   __ASM volatile ("MRS %0, control" : "=r" (result) );
  85:Drivers/CMSIS/Include/cmsis_gcc.h ****   return(result);
  86:Drivers/CMSIS/Include/cmsis_gcc.h **** }
  87:Drivers/CMSIS/Include/cmsis_gcc.h **** 
  88:Drivers/CMSIS/Include/cmsis_gcc.h **** 
  89:Drivers/CMSIS/Include/cmsis_gcc.h **** /**
  90:Drivers/CMSIS/Include/cmsis_gcc.h ****   \brief   Set Control Register
  91:Drivers/CMSIS/Include/cmsis_gcc.h ****   \details Writes the given value to the Control Register.
  92:Drivers/CMSIS/Include/cmsis_gcc.h ****   \param [in]    control  Control Register value to set
  93:Drivers/CMSIS/Include/cmsis_gcc.h ****  */
  94:Drivers/CMSIS/Include/cmsis_gcc.h **** __attribute__( ( always_inline ) ) __STATIC_INLINE void __set_CONTROL(uint32_t control)
  95:Drivers/CMSIS/Include/cmsis_gcc.h **** {
  96:Drivers/CMSIS/Include/cmsis_gcc.h ****   __ASM volatile ("MSR control, %0" : : "r" (control) : "memory");
  97:Drivers/CMSIS/Include/cmsis_gcc.h **** }
  98:Drivers/CMSIS/Include/cmsis_gcc.h **** 
  99:Drivers/CMSIS/Include/cmsis_gcc.h **** 
 100:Drivers/CMSIS/Include/cmsis_gcc.h **** /**
 101:Drivers/CMSIS/Include/cmsis_gcc.h ****   \brief   Get IPSR Register
 102:Drivers/CMSIS/Include/cmsis_gcc.h ****   \details Returns the content of the IPSR Register.
 103:Drivers/CMSIS/Include/cmsis_gcc.h ****   \return               IPSR Register value
 104:Drivers/CMSIS/Include/cmsis_gcc.h ****  */
 105:Drivers/CMSIS/Include/cmsis_gcc.h **** __attribute__( ( always_inline ) ) __STATIC_INLINE uint32_t __get_IPSR(void)
 106:Drivers/CMSIS/Include/cmsis_gcc.h **** {
 107:Drivers/CMSIS/Include/cmsis_gcc.h ****   uint32_t result;
 108:Drivers/CMSIS/Include/cmsis_gcc.h **** 
 109:Drivers/CMSIS/Include/cmsis_gcc.h ****   __ASM volatile ("MRS %0, ipsr" : "=r" (result) );
 110:Drivers/CMSIS/Include/cmsis_gcc.h ****   return(result);
 111:Drivers/CMSIS/Include/cmsis_gcc.h **** }
 112:Drivers/CMSIS/Include/cmsis_gcc.h **** 
 113:Drivers/CMSIS/Include/cmsis_gcc.h **** 
 114:Drivers/CMSIS/Include/cmsis_gcc.h **** /**
 115:Drivers/CMSIS/Include/cmsis_gcc.h ****   \brief   Get APSR Register
 116:Drivers/CMSIS/Include/cmsis_gcc.h ****   \details Returns the content of the APSR Register.
 117:Drivers/CMSIS/Include/cmsis_gcc.h ****   \return               APSR Register value
 118:Drivers/CMSIS/Include/cmsis_gcc.h ****  */
 119:Drivers/CMSIS/Include/cmsis_gcc.h **** __attribute__( ( always_inline ) ) __STATIC_INLINE uint32_t __get_APSR(void)
 120:Drivers/CMSIS/Include/cmsis_gcc.h **** {
 121:Drivers/CMSIS/Include/cmsis_gcc.h ****   uint32_t result;
 122:Drivers/CMSIS/Include/cmsis_gcc.h **** 
 123:Drivers/CMSIS/Include/cmsis_gcc.h ****   __ASM volatile ("MRS %0, apsr" : "=r" (result) );
 124:Drivers/CMSIS/Include/cmsis_gcc.h ****   return(result);
 125:Drivers/CMSIS/Include/cmsis_gcc.h **** }
ARM GAS  /tmp/ccukyRaG.s 			page 8


 126:Drivers/CMSIS/Include/cmsis_gcc.h **** 
 127:Drivers/CMSIS/Include/cmsis_gcc.h **** 
 128:Drivers/CMSIS/Include/cmsis_gcc.h **** /**
 129:Drivers/CMSIS/Include/cmsis_gcc.h ****   \brief   Get xPSR Register
 130:Drivers/CMSIS/Include/cmsis_gcc.h ****   \details Returns the content of the xPSR Register.
 131:Drivers/CMSIS/Include/cmsis_gcc.h **** 
 132:Drivers/CMSIS/Include/cmsis_gcc.h ****     \return               xPSR Register value
 133:Drivers/CMSIS/Include/cmsis_gcc.h ****  */
 134:Drivers/CMSIS/Include/cmsis_gcc.h **** __attribute__( ( always_inline ) ) __STATIC_INLINE uint32_t __get_xPSR(void)
 135:Drivers/CMSIS/Include/cmsis_gcc.h **** {
 136:Drivers/CMSIS/Include/cmsis_gcc.h ****   uint32_t result;
 137:Drivers/CMSIS/Include/cmsis_gcc.h **** 
 138:Drivers/CMSIS/Include/cmsis_gcc.h ****   __ASM volatile ("MRS %0, xpsr" : "=r" (result) );
 139:Drivers/CMSIS/Include/cmsis_gcc.h ****   return(result);
 140:Drivers/CMSIS/Include/cmsis_gcc.h **** }
 141:Drivers/CMSIS/Include/cmsis_gcc.h **** 
 142:Drivers/CMSIS/Include/cmsis_gcc.h **** 
 143:Drivers/CMSIS/Include/cmsis_gcc.h **** /**
 144:Drivers/CMSIS/Include/cmsis_gcc.h ****   \brief   Get Process Stack Pointer
 145:Drivers/CMSIS/Include/cmsis_gcc.h ****   \details Returns the current value of the Process Stack Pointer (PSP).
 146:Drivers/CMSIS/Include/cmsis_gcc.h ****   \return               PSP Register value
 147:Drivers/CMSIS/Include/cmsis_gcc.h ****  */
 148:Drivers/CMSIS/Include/cmsis_gcc.h **** __attribute__( ( always_inline ) ) __STATIC_INLINE uint32_t __get_PSP(void)
 149:Drivers/CMSIS/Include/cmsis_gcc.h **** {
 150:Drivers/CMSIS/Include/cmsis_gcc.h ****   register uint32_t result;
 151:Drivers/CMSIS/Include/cmsis_gcc.h **** 
 152:Drivers/CMSIS/Include/cmsis_gcc.h ****   __ASM volatile ("MRS %0, psp\n"  : "=r" (result) );
 153:Drivers/CMSIS/Include/cmsis_gcc.h ****   return(result);
 154:Drivers/CMSIS/Include/cmsis_gcc.h **** }
 155:Drivers/CMSIS/Include/cmsis_gcc.h **** 
 156:Drivers/CMSIS/Include/cmsis_gcc.h **** 
 157:Drivers/CMSIS/Include/cmsis_gcc.h **** /**
 158:Drivers/CMSIS/Include/cmsis_gcc.h ****   \brief   Set Process Stack Pointer
 159:Drivers/CMSIS/Include/cmsis_gcc.h ****   \details Assigns the given value to the Process Stack Pointer (PSP).
 160:Drivers/CMSIS/Include/cmsis_gcc.h ****   \param [in]    topOfProcStack  Process Stack Pointer value to set
 161:Drivers/CMSIS/Include/cmsis_gcc.h ****  */
 162:Drivers/CMSIS/Include/cmsis_gcc.h **** __attribute__( ( always_inline ) ) __STATIC_INLINE void __set_PSP(uint32_t topOfProcStack)
 163:Drivers/CMSIS/Include/cmsis_gcc.h **** {
 164:Drivers/CMSIS/Include/cmsis_gcc.h ****   __ASM volatile ("MSR psp, %0\n" : : "r" (topOfProcStack) : "sp");
 165:Drivers/CMSIS/Include/cmsis_gcc.h **** }
 166:Drivers/CMSIS/Include/cmsis_gcc.h **** 
 167:Drivers/CMSIS/Include/cmsis_gcc.h **** 
 168:Drivers/CMSIS/Include/cmsis_gcc.h **** /**
 169:Drivers/CMSIS/Include/cmsis_gcc.h ****   \brief   Get Main Stack Pointer
 170:Drivers/CMSIS/Include/cmsis_gcc.h ****   \details Returns the current value of the Main Stack Pointer (MSP).
 171:Drivers/CMSIS/Include/cmsis_gcc.h ****   \return               MSP Register value
 172:Drivers/CMSIS/Include/cmsis_gcc.h ****  */
 173:Drivers/CMSIS/Include/cmsis_gcc.h **** __attribute__( ( always_inline ) ) __STATIC_INLINE uint32_t __get_MSP(void)
 174:Drivers/CMSIS/Include/cmsis_gcc.h **** {
 175:Drivers/CMSIS/Include/cmsis_gcc.h ****   register uint32_t result;
 176:Drivers/CMSIS/Include/cmsis_gcc.h **** 
 177:Drivers/CMSIS/Include/cmsis_gcc.h ****   __ASM volatile ("MRS %0, msp\n" : "=r" (result) );
 178:Drivers/CMSIS/Include/cmsis_gcc.h ****   return(result);
 179:Drivers/CMSIS/Include/cmsis_gcc.h **** }
 180:Drivers/CMSIS/Include/cmsis_gcc.h **** 
 181:Drivers/CMSIS/Include/cmsis_gcc.h **** 
 182:Drivers/CMSIS/Include/cmsis_gcc.h **** /**
ARM GAS  /tmp/ccukyRaG.s 			page 9


 183:Drivers/CMSIS/Include/cmsis_gcc.h ****   \brief   Set Main Stack Pointer
 184:Drivers/CMSIS/Include/cmsis_gcc.h ****   \details Assigns the given value to the Main Stack Pointer (MSP).
 185:Drivers/CMSIS/Include/cmsis_gcc.h **** 
 186:Drivers/CMSIS/Include/cmsis_gcc.h ****     \param [in]    topOfMainStack  Main Stack Pointer value to set
 187:Drivers/CMSIS/Include/cmsis_gcc.h ****  */
 188:Drivers/CMSIS/Include/cmsis_gcc.h **** __attribute__( ( always_inline ) ) __STATIC_INLINE void __set_MSP(uint32_t topOfMainStack)
 189:Drivers/CMSIS/Include/cmsis_gcc.h **** {
 190:Drivers/CMSIS/Include/cmsis_gcc.h ****   __ASM volatile ("MSR msp, %0\n" : : "r" (topOfMainStack) : "sp");
 191:Drivers/CMSIS/Include/cmsis_gcc.h **** }
 192:Drivers/CMSIS/Include/cmsis_gcc.h **** 
 193:Drivers/CMSIS/Include/cmsis_gcc.h **** 
 194:Drivers/CMSIS/Include/cmsis_gcc.h **** /**
 195:Drivers/CMSIS/Include/cmsis_gcc.h ****   \brief   Get Priority Mask
 196:Drivers/CMSIS/Include/cmsis_gcc.h ****   \details Returns the current state of the priority mask bit from the Priority Mask Register.
 197:Drivers/CMSIS/Include/cmsis_gcc.h ****   \return               Priority Mask value
 198:Drivers/CMSIS/Include/cmsis_gcc.h ****  */
 199:Drivers/CMSIS/Include/cmsis_gcc.h **** __attribute__( ( always_inline ) ) __STATIC_INLINE uint32_t __get_PRIMASK(void)
 200:Drivers/CMSIS/Include/cmsis_gcc.h **** {
 201:Drivers/CMSIS/Include/cmsis_gcc.h ****   uint32_t result;
 202:Drivers/CMSIS/Include/cmsis_gcc.h **** 
 203:Drivers/CMSIS/Include/cmsis_gcc.h ****   __ASM volatile ("MRS %0, primask" : "=r" (result) );
 204:Drivers/CMSIS/Include/cmsis_gcc.h ****   return(result);
 205:Drivers/CMSIS/Include/cmsis_gcc.h **** }
 206:Drivers/CMSIS/Include/cmsis_gcc.h **** 
 207:Drivers/CMSIS/Include/cmsis_gcc.h **** 
 208:Drivers/CMSIS/Include/cmsis_gcc.h **** /**
 209:Drivers/CMSIS/Include/cmsis_gcc.h ****   \brief   Set Priority Mask
 210:Drivers/CMSIS/Include/cmsis_gcc.h ****   \details Assigns the given value to the Priority Mask Register.
 211:Drivers/CMSIS/Include/cmsis_gcc.h ****   \param [in]    priMask  Priority Mask
 212:Drivers/CMSIS/Include/cmsis_gcc.h ****  */
 213:Drivers/CMSIS/Include/cmsis_gcc.h **** __attribute__( ( always_inline ) ) __STATIC_INLINE void __set_PRIMASK(uint32_t priMask)
 214:Drivers/CMSIS/Include/cmsis_gcc.h **** {
 215:Drivers/CMSIS/Include/cmsis_gcc.h ****   __ASM volatile ("MSR primask, %0" : : "r" (priMask) : "memory");
 216:Drivers/CMSIS/Include/cmsis_gcc.h **** }
 217:Drivers/CMSIS/Include/cmsis_gcc.h **** 
 218:Drivers/CMSIS/Include/cmsis_gcc.h **** 
 219:Drivers/CMSIS/Include/cmsis_gcc.h **** #if       (__CORTEX_M >= 0x03U)
 220:Drivers/CMSIS/Include/cmsis_gcc.h **** 
 221:Drivers/CMSIS/Include/cmsis_gcc.h **** /**
 222:Drivers/CMSIS/Include/cmsis_gcc.h ****   \brief   Enable FIQ
 223:Drivers/CMSIS/Include/cmsis_gcc.h ****   \details Enables FIQ interrupts by clearing the F-bit in the CPSR.
 224:Drivers/CMSIS/Include/cmsis_gcc.h ****            Can only be executed in Privileged modes.
 225:Drivers/CMSIS/Include/cmsis_gcc.h ****  */
 226:Drivers/CMSIS/Include/cmsis_gcc.h **** __attribute__( ( always_inline ) ) __STATIC_INLINE void __enable_fault_irq(void)
 227:Drivers/CMSIS/Include/cmsis_gcc.h **** {
 228:Drivers/CMSIS/Include/cmsis_gcc.h ****   __ASM volatile ("cpsie f" : : : "memory");
 229:Drivers/CMSIS/Include/cmsis_gcc.h **** }
 230:Drivers/CMSIS/Include/cmsis_gcc.h **** 
 231:Drivers/CMSIS/Include/cmsis_gcc.h **** 
 232:Drivers/CMSIS/Include/cmsis_gcc.h **** /**
 233:Drivers/CMSIS/Include/cmsis_gcc.h ****   \brief   Disable FIQ
 234:Drivers/CMSIS/Include/cmsis_gcc.h ****   \details Disables FIQ interrupts by setting the F-bit in the CPSR.
 235:Drivers/CMSIS/Include/cmsis_gcc.h ****            Can only be executed in Privileged modes.
 236:Drivers/CMSIS/Include/cmsis_gcc.h ****  */
 237:Drivers/CMSIS/Include/cmsis_gcc.h **** __attribute__( ( always_inline ) ) __STATIC_INLINE void __disable_fault_irq(void)
 238:Drivers/CMSIS/Include/cmsis_gcc.h **** {
 239:Drivers/CMSIS/Include/cmsis_gcc.h ****   __ASM volatile ("cpsid f" : : : "memory");
ARM GAS  /tmp/ccukyRaG.s 			page 10


 240:Drivers/CMSIS/Include/cmsis_gcc.h **** }
 241:Drivers/CMSIS/Include/cmsis_gcc.h **** 
 242:Drivers/CMSIS/Include/cmsis_gcc.h **** 
 243:Drivers/CMSIS/Include/cmsis_gcc.h **** /**
 244:Drivers/CMSIS/Include/cmsis_gcc.h ****   \brief   Get Base Priority
 245:Drivers/CMSIS/Include/cmsis_gcc.h ****   \details Returns the current value of the Base Priority register.
 246:Drivers/CMSIS/Include/cmsis_gcc.h ****   \return               Base Priority register value
 247:Drivers/CMSIS/Include/cmsis_gcc.h ****  */
 248:Drivers/CMSIS/Include/cmsis_gcc.h **** __attribute__( ( always_inline ) ) __STATIC_INLINE uint32_t __get_BASEPRI(void)
 249:Drivers/CMSIS/Include/cmsis_gcc.h **** {
 250:Drivers/CMSIS/Include/cmsis_gcc.h ****   uint32_t result;
 251:Drivers/CMSIS/Include/cmsis_gcc.h **** 
 252:Drivers/CMSIS/Include/cmsis_gcc.h ****   __ASM volatile ("MRS %0, basepri" : "=r" (result) );
 253:Drivers/CMSIS/Include/cmsis_gcc.h ****   return(result);
 254:Drivers/CMSIS/Include/cmsis_gcc.h **** }
 255:Drivers/CMSIS/Include/cmsis_gcc.h **** 
 256:Drivers/CMSIS/Include/cmsis_gcc.h **** 
 257:Drivers/CMSIS/Include/cmsis_gcc.h **** /**
 258:Drivers/CMSIS/Include/cmsis_gcc.h ****   \brief   Set Base Priority
 259:Drivers/CMSIS/Include/cmsis_gcc.h ****   \details Assigns the given value to the Base Priority register.
 260:Drivers/CMSIS/Include/cmsis_gcc.h ****   \param [in]    basePri  Base Priority value to set
 261:Drivers/CMSIS/Include/cmsis_gcc.h ****  */
 262:Drivers/CMSIS/Include/cmsis_gcc.h **** __attribute__( ( always_inline ) ) __STATIC_INLINE void __set_BASEPRI(uint32_t value)
 263:Drivers/CMSIS/Include/cmsis_gcc.h **** {
 264:Drivers/CMSIS/Include/cmsis_gcc.h ****   __ASM volatile ("MSR basepri, %0" : : "r" (value) : "memory");
 265:Drivers/CMSIS/Include/cmsis_gcc.h **** }
 266:Drivers/CMSIS/Include/cmsis_gcc.h **** 
 267:Drivers/CMSIS/Include/cmsis_gcc.h **** 
 268:Drivers/CMSIS/Include/cmsis_gcc.h **** /**
 269:Drivers/CMSIS/Include/cmsis_gcc.h ****   \brief   Set Base Priority with condition
 270:Drivers/CMSIS/Include/cmsis_gcc.h ****   \details Assigns the given value to the Base Priority register only if BASEPRI masking is disable
 271:Drivers/CMSIS/Include/cmsis_gcc.h ****            or the new value increases the BASEPRI priority level.
 272:Drivers/CMSIS/Include/cmsis_gcc.h ****   \param [in]    basePri  Base Priority value to set
 273:Drivers/CMSIS/Include/cmsis_gcc.h ****  */
 274:Drivers/CMSIS/Include/cmsis_gcc.h **** __attribute__( ( always_inline ) ) __STATIC_INLINE void __set_BASEPRI_MAX(uint32_t value)
 275:Drivers/CMSIS/Include/cmsis_gcc.h **** {
 276:Drivers/CMSIS/Include/cmsis_gcc.h ****   __ASM volatile ("MSR basepri_max, %0" : : "r" (value) : "memory");
 277:Drivers/CMSIS/Include/cmsis_gcc.h **** }
 278:Drivers/CMSIS/Include/cmsis_gcc.h **** 
 279:Drivers/CMSIS/Include/cmsis_gcc.h **** 
 280:Drivers/CMSIS/Include/cmsis_gcc.h **** /**
 281:Drivers/CMSIS/Include/cmsis_gcc.h ****   \brief   Get Fault Mask
 282:Drivers/CMSIS/Include/cmsis_gcc.h ****   \details Returns the current value of the Fault Mask register.
 283:Drivers/CMSIS/Include/cmsis_gcc.h ****   \return               Fault Mask register value
 284:Drivers/CMSIS/Include/cmsis_gcc.h ****  */
 285:Drivers/CMSIS/Include/cmsis_gcc.h **** __attribute__( ( always_inline ) ) __STATIC_INLINE uint32_t __get_FAULTMASK(void)
 286:Drivers/CMSIS/Include/cmsis_gcc.h **** {
 287:Drivers/CMSIS/Include/cmsis_gcc.h ****   uint32_t result;
 288:Drivers/CMSIS/Include/cmsis_gcc.h **** 
 289:Drivers/CMSIS/Include/cmsis_gcc.h ****   __ASM volatile ("MRS %0, faultmask" : "=r" (result) );
 290:Drivers/CMSIS/Include/cmsis_gcc.h ****   return(result);
 291:Drivers/CMSIS/Include/cmsis_gcc.h **** }
 292:Drivers/CMSIS/Include/cmsis_gcc.h **** 
 293:Drivers/CMSIS/Include/cmsis_gcc.h **** 
 294:Drivers/CMSIS/Include/cmsis_gcc.h **** /**
 295:Drivers/CMSIS/Include/cmsis_gcc.h ****   \brief   Set Fault Mask
 296:Drivers/CMSIS/Include/cmsis_gcc.h ****   \details Assigns the given value to the Fault Mask register.
ARM GAS  /tmp/ccukyRaG.s 			page 11


 297:Drivers/CMSIS/Include/cmsis_gcc.h ****   \param [in]    faultMask  Fault Mask value to set
 298:Drivers/CMSIS/Include/cmsis_gcc.h ****  */
 299:Drivers/CMSIS/Include/cmsis_gcc.h **** __attribute__( ( always_inline ) ) __STATIC_INLINE void __set_FAULTMASK(uint32_t faultMask)
 300:Drivers/CMSIS/Include/cmsis_gcc.h **** {
 301:Drivers/CMSIS/Include/cmsis_gcc.h ****   __ASM volatile ("MSR faultmask, %0" : : "r" (faultMask) : "memory");
 302:Drivers/CMSIS/Include/cmsis_gcc.h **** }
 303:Drivers/CMSIS/Include/cmsis_gcc.h **** 
 304:Drivers/CMSIS/Include/cmsis_gcc.h **** #endif /* (__CORTEX_M >= 0x03U) */
 305:Drivers/CMSIS/Include/cmsis_gcc.h **** 
 306:Drivers/CMSIS/Include/cmsis_gcc.h **** 
 307:Drivers/CMSIS/Include/cmsis_gcc.h **** #if       (__CORTEX_M == 0x04U) || (__CORTEX_M == 0x07U)
 308:Drivers/CMSIS/Include/cmsis_gcc.h **** 
 309:Drivers/CMSIS/Include/cmsis_gcc.h **** /**
 310:Drivers/CMSIS/Include/cmsis_gcc.h ****   \brief   Get FPSCR
 311:Drivers/CMSIS/Include/cmsis_gcc.h ****   \details Returns the current value of the Floating Point Status/Control register.
 312:Drivers/CMSIS/Include/cmsis_gcc.h ****   \return               Floating Point Status/Control register value
 313:Drivers/CMSIS/Include/cmsis_gcc.h ****  */
 314:Drivers/CMSIS/Include/cmsis_gcc.h **** __attribute__( ( always_inline ) ) __STATIC_INLINE uint32_t __get_FPSCR(void)
 315:Drivers/CMSIS/Include/cmsis_gcc.h **** {
 316:Drivers/CMSIS/Include/cmsis_gcc.h **** #if (__FPU_PRESENT == 1U) && (__FPU_USED == 1U)
 317:Drivers/CMSIS/Include/cmsis_gcc.h ****   uint32_t result;
 318:Drivers/CMSIS/Include/cmsis_gcc.h **** 
 319:Drivers/CMSIS/Include/cmsis_gcc.h ****   /* Empty asm statement works as a scheduling barrier */
 320:Drivers/CMSIS/Include/cmsis_gcc.h ****   __ASM volatile ("");
 321:Drivers/CMSIS/Include/cmsis_gcc.h ****   __ASM volatile ("VMRS %0, fpscr" : "=r" (result) );
 322:Drivers/CMSIS/Include/cmsis_gcc.h ****   __ASM volatile ("");
 323:Drivers/CMSIS/Include/cmsis_gcc.h ****   return(result);
 324:Drivers/CMSIS/Include/cmsis_gcc.h **** #else
 325:Drivers/CMSIS/Include/cmsis_gcc.h ****    return(0);
 326:Drivers/CMSIS/Include/cmsis_gcc.h **** #endif
 327:Drivers/CMSIS/Include/cmsis_gcc.h **** }
 328:Drivers/CMSIS/Include/cmsis_gcc.h **** 
 329:Drivers/CMSIS/Include/cmsis_gcc.h **** 
 330:Drivers/CMSIS/Include/cmsis_gcc.h **** /**
 331:Drivers/CMSIS/Include/cmsis_gcc.h ****   \brief   Set FPSCR
 332:Drivers/CMSIS/Include/cmsis_gcc.h ****   \details Assigns the given value to the Floating Point Status/Control register.
 333:Drivers/CMSIS/Include/cmsis_gcc.h ****   \param [in]    fpscr  Floating Point Status/Control value to set
 334:Drivers/CMSIS/Include/cmsis_gcc.h ****  */
 335:Drivers/CMSIS/Include/cmsis_gcc.h **** __attribute__( ( always_inline ) ) __STATIC_INLINE void __set_FPSCR(uint32_t fpscr)
 336:Drivers/CMSIS/Include/cmsis_gcc.h **** {
 337:Drivers/CMSIS/Include/cmsis_gcc.h **** #if (__FPU_PRESENT == 1U) && (__FPU_USED == 1U)
 338:Drivers/CMSIS/Include/cmsis_gcc.h ****   /* Empty asm statement works as a scheduling barrier */
 339:Drivers/CMSIS/Include/cmsis_gcc.h ****   __ASM volatile ("");
 340:Drivers/CMSIS/Include/cmsis_gcc.h ****   __ASM volatile ("VMSR fpscr, %0" : : "r" (fpscr) : "vfpcc");
 341:Drivers/CMSIS/Include/cmsis_gcc.h ****   __ASM volatile ("");
 342:Drivers/CMSIS/Include/cmsis_gcc.h **** #endif
 343:Drivers/CMSIS/Include/cmsis_gcc.h **** }
 344:Drivers/CMSIS/Include/cmsis_gcc.h **** 
 345:Drivers/CMSIS/Include/cmsis_gcc.h **** #endif /* (__CORTEX_M == 0x04U) || (__CORTEX_M == 0x07U) */
 346:Drivers/CMSIS/Include/cmsis_gcc.h **** 
 347:Drivers/CMSIS/Include/cmsis_gcc.h **** 
 348:Drivers/CMSIS/Include/cmsis_gcc.h **** 
 349:Drivers/CMSIS/Include/cmsis_gcc.h **** /*@} end of CMSIS_Core_RegAccFunctions */
 350:Drivers/CMSIS/Include/cmsis_gcc.h **** 
 351:Drivers/CMSIS/Include/cmsis_gcc.h **** 
 352:Drivers/CMSIS/Include/cmsis_gcc.h **** /* ##########################  Core Instruction Access  ######################### */
 353:Drivers/CMSIS/Include/cmsis_gcc.h **** /** \defgroup CMSIS_Core_InstructionInterface CMSIS Core Instruction Interface
ARM GAS  /tmp/ccukyRaG.s 			page 12


 354:Drivers/CMSIS/Include/cmsis_gcc.h ****   Access to dedicated instructions
 355:Drivers/CMSIS/Include/cmsis_gcc.h ****   @{
 356:Drivers/CMSIS/Include/cmsis_gcc.h **** */
 357:Drivers/CMSIS/Include/cmsis_gcc.h **** 
 358:Drivers/CMSIS/Include/cmsis_gcc.h **** /* Define macros for porting to both thumb1 and thumb2.
 359:Drivers/CMSIS/Include/cmsis_gcc.h ****  * For thumb1, use low register (r0-r7), specified by constraint "l"
 360:Drivers/CMSIS/Include/cmsis_gcc.h ****  * Otherwise, use general registers, specified by constraint "r" */
 361:Drivers/CMSIS/Include/cmsis_gcc.h **** #if defined (__thumb__) && !defined (__thumb2__)
 362:Drivers/CMSIS/Include/cmsis_gcc.h **** #define __CMSIS_GCC_OUT_REG(r) "=l" (r)
 363:Drivers/CMSIS/Include/cmsis_gcc.h **** #define __CMSIS_GCC_USE_REG(r) "l" (r)
 364:Drivers/CMSIS/Include/cmsis_gcc.h **** #else
 365:Drivers/CMSIS/Include/cmsis_gcc.h **** #define __CMSIS_GCC_OUT_REG(r) "=r" (r)
 366:Drivers/CMSIS/Include/cmsis_gcc.h **** #define __CMSIS_GCC_USE_REG(r) "r" (r)
 367:Drivers/CMSIS/Include/cmsis_gcc.h **** #endif
 368:Drivers/CMSIS/Include/cmsis_gcc.h **** 
 369:Drivers/CMSIS/Include/cmsis_gcc.h **** /**
 370:Drivers/CMSIS/Include/cmsis_gcc.h ****   \brief   No Operation
 371:Drivers/CMSIS/Include/cmsis_gcc.h ****   \details No Operation does nothing. This instruction can be used for code alignment purposes.
 372:Drivers/CMSIS/Include/cmsis_gcc.h ****  */
 373:Drivers/CMSIS/Include/cmsis_gcc.h **** __attribute__((always_inline)) __STATIC_INLINE void __NOP(void)
 374:Drivers/CMSIS/Include/cmsis_gcc.h **** {
 375:Drivers/CMSIS/Include/cmsis_gcc.h ****   __ASM volatile ("nop");
 376:Drivers/CMSIS/Include/cmsis_gcc.h **** }
 377:Drivers/CMSIS/Include/cmsis_gcc.h **** 
 378:Drivers/CMSIS/Include/cmsis_gcc.h **** 
 379:Drivers/CMSIS/Include/cmsis_gcc.h **** /**
 380:Drivers/CMSIS/Include/cmsis_gcc.h ****   \brief   Wait For Interrupt
 381:Drivers/CMSIS/Include/cmsis_gcc.h ****   \details Wait For Interrupt is a hint instruction that suspends execution until one of a number o
 382:Drivers/CMSIS/Include/cmsis_gcc.h ****  */
 383:Drivers/CMSIS/Include/cmsis_gcc.h **** __attribute__((always_inline)) __STATIC_INLINE void __WFI(void)
 384:Drivers/CMSIS/Include/cmsis_gcc.h **** {
 385:Drivers/CMSIS/Include/cmsis_gcc.h ****   __ASM volatile ("wfi");
 386:Drivers/CMSIS/Include/cmsis_gcc.h **** }
 387:Drivers/CMSIS/Include/cmsis_gcc.h **** 
 388:Drivers/CMSIS/Include/cmsis_gcc.h **** 
 389:Drivers/CMSIS/Include/cmsis_gcc.h **** /**
 390:Drivers/CMSIS/Include/cmsis_gcc.h ****   \brief   Wait For Event
 391:Drivers/CMSIS/Include/cmsis_gcc.h ****   \details Wait For Event is a hint instruction that permits the processor to enter
 392:Drivers/CMSIS/Include/cmsis_gcc.h ****     a low-power state until one of a number of events occurs.
 393:Drivers/CMSIS/Include/cmsis_gcc.h ****  */
 394:Drivers/CMSIS/Include/cmsis_gcc.h **** __attribute__((always_inline)) __STATIC_INLINE void __WFE(void)
 395:Drivers/CMSIS/Include/cmsis_gcc.h **** {
 396:Drivers/CMSIS/Include/cmsis_gcc.h ****   __ASM volatile ("wfe");
 397:Drivers/CMSIS/Include/cmsis_gcc.h **** }
 398:Drivers/CMSIS/Include/cmsis_gcc.h **** 
 399:Drivers/CMSIS/Include/cmsis_gcc.h **** 
 400:Drivers/CMSIS/Include/cmsis_gcc.h **** /**
 401:Drivers/CMSIS/Include/cmsis_gcc.h ****   \brief   Send Event
 402:Drivers/CMSIS/Include/cmsis_gcc.h ****   \details Send Event is a hint instruction. It causes an event to be signaled to the CPU.
 403:Drivers/CMSIS/Include/cmsis_gcc.h ****  */
 404:Drivers/CMSIS/Include/cmsis_gcc.h **** __attribute__((always_inline)) __STATIC_INLINE void __SEV(void)
 405:Drivers/CMSIS/Include/cmsis_gcc.h **** {
 406:Drivers/CMSIS/Include/cmsis_gcc.h ****   __ASM volatile ("sev");
 407:Drivers/CMSIS/Include/cmsis_gcc.h **** }
 408:Drivers/CMSIS/Include/cmsis_gcc.h **** 
 409:Drivers/CMSIS/Include/cmsis_gcc.h **** 
 410:Drivers/CMSIS/Include/cmsis_gcc.h **** /**
ARM GAS  /tmp/ccukyRaG.s 			page 13


 411:Drivers/CMSIS/Include/cmsis_gcc.h ****   \brief   Instruction Synchronization Barrier
 412:Drivers/CMSIS/Include/cmsis_gcc.h ****   \details Instruction Synchronization Barrier flushes the pipeline in the processor,
 413:Drivers/CMSIS/Include/cmsis_gcc.h ****            so that all instructions following the ISB are fetched from cache or memory,
 414:Drivers/CMSIS/Include/cmsis_gcc.h ****            after the instruction has been completed.
 415:Drivers/CMSIS/Include/cmsis_gcc.h ****  */
 416:Drivers/CMSIS/Include/cmsis_gcc.h **** __attribute__((always_inline)) __STATIC_INLINE void __ISB(void)
 417:Drivers/CMSIS/Include/cmsis_gcc.h **** {
 418:Drivers/CMSIS/Include/cmsis_gcc.h ****   __ASM volatile ("isb 0xF":::"memory");
 419:Drivers/CMSIS/Include/cmsis_gcc.h **** }
 420:Drivers/CMSIS/Include/cmsis_gcc.h **** 
 421:Drivers/CMSIS/Include/cmsis_gcc.h **** 
 422:Drivers/CMSIS/Include/cmsis_gcc.h **** /**
 423:Drivers/CMSIS/Include/cmsis_gcc.h ****   \brief   Data Synchronization Barrier
 424:Drivers/CMSIS/Include/cmsis_gcc.h ****   \details Acts as a special kind of Data Memory Barrier.
 425:Drivers/CMSIS/Include/cmsis_gcc.h ****            It completes when all explicit memory accesses before this instruction complete.
 426:Drivers/CMSIS/Include/cmsis_gcc.h ****  */
 427:Drivers/CMSIS/Include/cmsis_gcc.h **** __attribute__((always_inline)) __STATIC_INLINE void __DSB(void)
 428:Drivers/CMSIS/Include/cmsis_gcc.h **** {
 429:Drivers/CMSIS/Include/cmsis_gcc.h ****   __ASM volatile ("dsb 0xF":::"memory");
 430:Drivers/CMSIS/Include/cmsis_gcc.h **** }
 431:Drivers/CMSIS/Include/cmsis_gcc.h **** 
 432:Drivers/CMSIS/Include/cmsis_gcc.h **** 
 433:Drivers/CMSIS/Include/cmsis_gcc.h **** /**
 434:Drivers/CMSIS/Include/cmsis_gcc.h ****   \brief   Data Memory Barrier
 435:Drivers/CMSIS/Include/cmsis_gcc.h ****   \details Ensures the apparent order of the explicit memory operations before
 436:Drivers/CMSIS/Include/cmsis_gcc.h ****            and after the instruction, without ensuring their completion.
 437:Drivers/CMSIS/Include/cmsis_gcc.h ****  */
 438:Drivers/CMSIS/Include/cmsis_gcc.h **** __attribute__((always_inline)) __STATIC_INLINE void __DMB(void)
 439:Drivers/CMSIS/Include/cmsis_gcc.h **** {
 440:Drivers/CMSIS/Include/cmsis_gcc.h ****   __ASM volatile ("dmb 0xF":::"memory");
 441:Drivers/CMSIS/Include/cmsis_gcc.h **** }
 442:Drivers/CMSIS/Include/cmsis_gcc.h **** 
 443:Drivers/CMSIS/Include/cmsis_gcc.h **** 
 444:Drivers/CMSIS/Include/cmsis_gcc.h **** /**
 445:Drivers/CMSIS/Include/cmsis_gcc.h ****   \brief   Reverse byte order (32 bit)
 446:Drivers/CMSIS/Include/cmsis_gcc.h ****   \details Reverses the byte order in integer value.
 447:Drivers/CMSIS/Include/cmsis_gcc.h ****   \param [in]    value  Value to reverse
 448:Drivers/CMSIS/Include/cmsis_gcc.h ****   \return               Reversed value
 449:Drivers/CMSIS/Include/cmsis_gcc.h ****  */
 450:Drivers/CMSIS/Include/cmsis_gcc.h **** __attribute__((always_inline)) __STATIC_INLINE uint32_t __REV(uint32_t value)
 451:Drivers/CMSIS/Include/cmsis_gcc.h **** {
 452:Drivers/CMSIS/Include/cmsis_gcc.h **** #if (__GNUC__ > 4) || (__GNUC__ == 4 && __GNUC_MINOR__ >= 5)
 453:Drivers/CMSIS/Include/cmsis_gcc.h ****   return __builtin_bswap32(value);
 454:Drivers/CMSIS/Include/cmsis_gcc.h **** #else
 455:Drivers/CMSIS/Include/cmsis_gcc.h ****   uint32_t result;
 456:Drivers/CMSIS/Include/cmsis_gcc.h **** 
 457:Drivers/CMSIS/Include/cmsis_gcc.h ****   __ASM volatile ("rev %0, %1" : __CMSIS_GCC_OUT_REG (result) : __CMSIS_GCC_USE_REG (value) );
 458:Drivers/CMSIS/Include/cmsis_gcc.h ****   return(result);
 459:Drivers/CMSIS/Include/cmsis_gcc.h **** #endif
 460:Drivers/CMSIS/Include/cmsis_gcc.h **** }
 461:Drivers/CMSIS/Include/cmsis_gcc.h **** 
 462:Drivers/CMSIS/Include/cmsis_gcc.h **** 
 463:Drivers/CMSIS/Include/cmsis_gcc.h **** /**
 464:Drivers/CMSIS/Include/cmsis_gcc.h ****   \brief   Reverse byte order (16 bit)
 465:Drivers/CMSIS/Include/cmsis_gcc.h ****   \details Reverses the byte order in two unsigned short values.
 466:Drivers/CMSIS/Include/cmsis_gcc.h ****   \param [in]    value  Value to reverse
 467:Drivers/CMSIS/Include/cmsis_gcc.h ****   \return               Reversed value
ARM GAS  /tmp/ccukyRaG.s 			page 14


 468:Drivers/CMSIS/Include/cmsis_gcc.h ****  */
 469:Drivers/CMSIS/Include/cmsis_gcc.h **** __attribute__((always_inline)) __STATIC_INLINE uint32_t __REV16(uint32_t value)
 470:Drivers/CMSIS/Include/cmsis_gcc.h **** {
 471:Drivers/CMSIS/Include/cmsis_gcc.h ****   uint32_t result;
 472:Drivers/CMSIS/Include/cmsis_gcc.h **** 
 473:Drivers/CMSIS/Include/cmsis_gcc.h ****   __ASM volatile ("rev16 %0, %1" : __CMSIS_GCC_OUT_REG (result) : __CMSIS_GCC_USE_REG (value) );
 474:Drivers/CMSIS/Include/cmsis_gcc.h ****   return(result);
 475:Drivers/CMSIS/Include/cmsis_gcc.h **** }
 476:Drivers/CMSIS/Include/cmsis_gcc.h **** 
 477:Drivers/CMSIS/Include/cmsis_gcc.h **** 
 478:Drivers/CMSIS/Include/cmsis_gcc.h **** /**
 479:Drivers/CMSIS/Include/cmsis_gcc.h ****   \brief   Reverse byte order in signed short value
 480:Drivers/CMSIS/Include/cmsis_gcc.h ****   \details Reverses the byte order in a signed short value with sign extension to integer.
 481:Drivers/CMSIS/Include/cmsis_gcc.h ****   \param [in]    value  Value to reverse
 482:Drivers/CMSIS/Include/cmsis_gcc.h ****   \return               Reversed value
 483:Drivers/CMSIS/Include/cmsis_gcc.h ****  */
 484:Drivers/CMSIS/Include/cmsis_gcc.h **** __attribute__((always_inline)) __STATIC_INLINE int32_t __REVSH(int32_t value)
 485:Drivers/CMSIS/Include/cmsis_gcc.h **** {
 486:Drivers/CMSIS/Include/cmsis_gcc.h **** #if (__GNUC__ > 4) || (__GNUC__ == 4 && __GNUC_MINOR__ >= 8)
 487:Drivers/CMSIS/Include/cmsis_gcc.h ****   return (short)__builtin_bswap16(value);
 488:Drivers/CMSIS/Include/cmsis_gcc.h **** #else
 489:Drivers/CMSIS/Include/cmsis_gcc.h ****   int32_t result;
 490:Drivers/CMSIS/Include/cmsis_gcc.h **** 
 491:Drivers/CMSIS/Include/cmsis_gcc.h ****   __ASM volatile ("revsh %0, %1" : __CMSIS_GCC_OUT_REG (result) : __CMSIS_GCC_USE_REG (value) );
 492:Drivers/CMSIS/Include/cmsis_gcc.h ****   return(result);
 493:Drivers/CMSIS/Include/cmsis_gcc.h **** #endif
 494:Drivers/CMSIS/Include/cmsis_gcc.h **** }
 495:Drivers/CMSIS/Include/cmsis_gcc.h **** 
 496:Drivers/CMSIS/Include/cmsis_gcc.h **** 
 497:Drivers/CMSIS/Include/cmsis_gcc.h **** /**
 498:Drivers/CMSIS/Include/cmsis_gcc.h ****   \brief   Rotate Right in unsigned value (32 bit)
 499:Drivers/CMSIS/Include/cmsis_gcc.h ****   \details Rotate Right (immediate) provides the value of the contents of a register rotated by a v
 500:Drivers/CMSIS/Include/cmsis_gcc.h ****   \param [in]    value  Value to rotate
 501:Drivers/CMSIS/Include/cmsis_gcc.h ****   \param [in]    value  Number of Bits to rotate
 502:Drivers/CMSIS/Include/cmsis_gcc.h ****   \return               Rotated value
 503:Drivers/CMSIS/Include/cmsis_gcc.h ****  */
 504:Drivers/CMSIS/Include/cmsis_gcc.h **** __attribute__((always_inline)) __STATIC_INLINE uint32_t __ROR(uint32_t op1, uint32_t op2)
 505:Drivers/CMSIS/Include/cmsis_gcc.h **** {
 506:Drivers/CMSIS/Include/cmsis_gcc.h ****   return (op1 >> op2) | (op1 << (32U - op2));
 507:Drivers/CMSIS/Include/cmsis_gcc.h **** }
 508:Drivers/CMSIS/Include/cmsis_gcc.h **** 
 509:Drivers/CMSIS/Include/cmsis_gcc.h **** 
 510:Drivers/CMSIS/Include/cmsis_gcc.h **** /**
 511:Drivers/CMSIS/Include/cmsis_gcc.h ****   \brief   Breakpoint
 512:Drivers/CMSIS/Include/cmsis_gcc.h ****   \details Causes the processor to enter Debug state.
 513:Drivers/CMSIS/Include/cmsis_gcc.h ****            Debug tools can use this to investigate system state when the instruction at a particula
 514:Drivers/CMSIS/Include/cmsis_gcc.h ****   \param [in]    value  is ignored by the processor.
 515:Drivers/CMSIS/Include/cmsis_gcc.h ****                  If required, a debugger can use it to store additional information about the break
 516:Drivers/CMSIS/Include/cmsis_gcc.h ****  */
 517:Drivers/CMSIS/Include/cmsis_gcc.h **** #define __BKPT(value)                       __ASM volatile ("bkpt "#value)
 518:Drivers/CMSIS/Include/cmsis_gcc.h **** 
 519:Drivers/CMSIS/Include/cmsis_gcc.h **** 
 520:Drivers/CMSIS/Include/cmsis_gcc.h **** /**
 521:Drivers/CMSIS/Include/cmsis_gcc.h ****   \brief   Reverse bit order of value
 522:Drivers/CMSIS/Include/cmsis_gcc.h ****   \details Reverses the bit order of the given value.
 523:Drivers/CMSIS/Include/cmsis_gcc.h ****   \param [in]    value  Value to reverse
 524:Drivers/CMSIS/Include/cmsis_gcc.h ****   \return               Reversed value
ARM GAS  /tmp/ccukyRaG.s 			page 15


 525:Drivers/CMSIS/Include/cmsis_gcc.h ****  */
 526:Drivers/CMSIS/Include/cmsis_gcc.h **** __attribute__((always_inline)) __STATIC_INLINE uint32_t __RBIT(uint32_t value)
 527:Drivers/CMSIS/Include/cmsis_gcc.h **** {
 528:Drivers/CMSIS/Include/cmsis_gcc.h ****   uint32_t result;
 529:Drivers/CMSIS/Include/cmsis_gcc.h **** 
 530:Drivers/CMSIS/Include/cmsis_gcc.h **** #if       (__CORTEX_M >= 0x03U) || (__CORTEX_SC >= 300U)
 531:Drivers/CMSIS/Include/cmsis_gcc.h ****    __ASM volatile ("rbit %0, %1" : "=r" (result) : "r" (value) );
  42              		.loc 2 531 0
  43 0006 F821     		movs	r1, #248
  44              	.LBE144:
  45              	.LBE143:
 224:Drivers/STM32F1xx_HAL_Driver/Src/stm32f1xx_hal_rcc.c **** 
  46              		.loc 1 224 0
  47 0008 5A68     		ldr	r2, [r3, #4]
  48 000a 22F00302 		bic	r2, r2, #3
  49 000e 5A60     		str	r2, [r3, #4]
 227:Drivers/STM32F1xx_HAL_Driver/Src/stm32f1xx_hal_rcc.c ****   
  50              		.loc 1 227 0
  51 0010 1A68     		ldr	r2, [r3]
  52 0012 22F08472 		bic	r2, r2, #17301504
  53 0016 22F48032 		bic	r2, r2, #65536
  54 001a 1A60     		str	r2, [r3]
 230:Drivers/STM32F1xx_HAL_Driver/Src/stm32f1xx_hal_rcc.c ****   
  55              		.loc 1 230 0
  56 001c 1A68     		ldr	r2, [r3]
  57 001e 22F48022 		bic	r2, r2, #262144
  58 0022 1A60     		str	r2, [r3]
  59              		.loc 1 233 0
  60 0024 5C60     		str	r4, [r3, #4]
 234:Drivers/STM32F1xx_HAL_Driver/Src/stm32f1xx_hal_rcc.c ****   
 235:Drivers/STM32F1xx_HAL_Driver/Src/stm32f1xx_hal_rcc.c ****   /* Set HSITRIM bits to the reset value */
 236:Drivers/STM32F1xx_HAL_Driver/Src/stm32f1xx_hal_rcc.c ****   MODIFY_REG(RCC->CR, RCC_CR_HSITRIM, ((uint32_t)0x10 << POSITION_VAL(RCC_CR_HSITRIM)));
  61              		.loc 1 236 0
  62 0026 1A68     		ldr	r2, [r3]
  63              	.LVL0:
  64              	.LBB146:
  65              	.LBB145:
  66              		.loc 2 531 0
  67              		.syntax unified
  68              	@ 531 "Drivers/CMSIS/Include/cmsis_gcc.h" 1
  69 0028 91FAA1F1 		rbit r1, r1
  70              	@ 0 "" 2
  71              	.LVL1:
  72              		.thumb
  73              		.syntax unified
  74              	.LBE145:
  75              	.LBE146:
  76              		.loc 1 236 0
  77 002c 1020     		movs	r0, #16
  78 002e B1FA81F1 		clz	r1, r1
  79 0032 22F0F802 		bic	r2, r2, #248
  80 0036 00FA01F1 		lsl	r1, r0, r1
  81 003a 0A43     		orrs	r2, r2, r1
  82 003c 1A60     		str	r2, [r3]
 237:Drivers/STM32F1xx_HAL_Driver/Src/stm32f1xx_hal_rcc.c ****   
 238:Drivers/STM32F1xx_HAL_Driver/Src/stm32f1xx_hal_rcc.c **** #if (defined(STM32F105xC) || defined(STM32F107xC) || defined (STM32F100xB) || defined (STM32F100xE)
 239:Drivers/STM32F1xx_HAL_Driver/Src/stm32f1xx_hal_rcc.c ****   /* Reset CFGR2 register */
ARM GAS  /tmp/ccukyRaG.s 			page 16


 240:Drivers/STM32F1xx_HAL_Driver/Src/stm32f1xx_hal_rcc.c ****   CLEAR_REG(RCC->CFGR2);
 241:Drivers/STM32F1xx_HAL_Driver/Src/stm32f1xx_hal_rcc.c **** 
 242:Drivers/STM32F1xx_HAL_Driver/Src/stm32f1xx_hal_rcc.c **** #endif /* STM32F105xC || STM32F107xC || STM32F100xB || STM32F100xE */
 243:Drivers/STM32F1xx_HAL_Driver/Src/stm32f1xx_hal_rcc.c ****   /* Disable all interrupts */
 244:Drivers/STM32F1xx_HAL_Driver/Src/stm32f1xx_hal_rcc.c ****   CLEAR_REG(RCC->CIR);
  83              		.loc 1 244 0
  84 003e 9C60     		str	r4, [r3, #8]
 245:Drivers/STM32F1xx_HAL_Driver/Src/stm32f1xx_hal_rcc.c **** 
 246:Drivers/STM32F1xx_HAL_Driver/Src/stm32f1xx_hal_rcc.c ****   /* Update the SystemCoreClock global variable */
 247:Drivers/STM32F1xx_HAL_Driver/Src/stm32f1xx_hal_rcc.c ****   SystemCoreClock = HSI_VALUE;
  85              		.loc 1 247 0
  86 0040 024A     		ldr	r2, .L2+4
  87 0042 034B     		ldr	r3, .L2+8
  88 0044 1A60     		str	r2, [r3]
  89 0046 10BD     		pop	{r4, pc}
  90              	.L3:
  91              		.align	2
  92              	.L2:
  93 0048 00100240 		.word	1073876992
  94 004c 00127A00 		.word	8000000
  95 0050 00000000 		.word	SystemCoreClock
  96              		.cfi_endproc
  97              	.LFE64:
  99              		.section	.text.HAL_RCC_OscConfig,"ax",%progbits
 100              		.align	1
 101              		.global	HAL_RCC_OscConfig
 102              		.syntax unified
 103              		.thumb
 104              		.thumb_func
 105              		.fpu softvfp
 107              	HAL_RCC_OscConfig:
 108              	.LFB65:
 248:Drivers/STM32F1xx_HAL_Driver/Src/stm32f1xx_hal_rcc.c **** }
 249:Drivers/STM32F1xx_HAL_Driver/Src/stm32f1xx_hal_rcc.c **** 
 250:Drivers/STM32F1xx_HAL_Driver/Src/stm32f1xx_hal_rcc.c **** /**
 251:Drivers/STM32F1xx_HAL_Driver/Src/stm32f1xx_hal_rcc.c ****   * @brief  Initializes the RCC Oscillators according to the specified parameters in the
 252:Drivers/STM32F1xx_HAL_Driver/Src/stm32f1xx_hal_rcc.c ****   *         RCC_OscInitTypeDef.
 253:Drivers/STM32F1xx_HAL_Driver/Src/stm32f1xx_hal_rcc.c ****   * @param  RCC_OscInitStruct pointer to an RCC_OscInitTypeDef structure that
 254:Drivers/STM32F1xx_HAL_Driver/Src/stm32f1xx_hal_rcc.c ****   *         contains the configuration information for the RCC Oscillators.
 255:Drivers/STM32F1xx_HAL_Driver/Src/stm32f1xx_hal_rcc.c ****   * @note   The PLL is not disabled when used as system clock.
 256:Drivers/STM32F1xx_HAL_Driver/Src/stm32f1xx_hal_rcc.c ****   * @note   The PLL is not disabled when USB OTG FS clock is enabled (specific to devices with USB 
 257:Drivers/STM32F1xx_HAL_Driver/Src/stm32f1xx_hal_rcc.c ****   * @note   Transitions LSE Bypass to LSE On and LSE On to LSE Bypass are not
 258:Drivers/STM32F1xx_HAL_Driver/Src/stm32f1xx_hal_rcc.c ****   *         supported by this macro. User should request a transition to LSE Off
 259:Drivers/STM32F1xx_HAL_Driver/Src/stm32f1xx_hal_rcc.c ****   *         first and then LSE On or LSE Bypass.
 260:Drivers/STM32F1xx_HAL_Driver/Src/stm32f1xx_hal_rcc.c ****   * @note   Transition HSE Bypass to HSE On and HSE On to HSE Bypass are not
 261:Drivers/STM32F1xx_HAL_Driver/Src/stm32f1xx_hal_rcc.c ****   *         supported by this macro. User should request a transition to HSE Off
 262:Drivers/STM32F1xx_HAL_Driver/Src/stm32f1xx_hal_rcc.c ****   *         first and then HSE On or HSE Bypass.
 263:Drivers/STM32F1xx_HAL_Driver/Src/stm32f1xx_hal_rcc.c ****   * @retval HAL status
 264:Drivers/STM32F1xx_HAL_Driver/Src/stm32f1xx_hal_rcc.c ****   */
 265:Drivers/STM32F1xx_HAL_Driver/Src/stm32f1xx_hal_rcc.c **** HAL_StatusTypeDef HAL_RCC_OscConfig(RCC_OscInitTypeDef  *RCC_OscInitStruct)
 266:Drivers/STM32F1xx_HAL_Driver/Src/stm32f1xx_hal_rcc.c **** {
 109              		.loc 1 266 0
 110              		.cfi_startproc
 111              		@ args = 0, pretend = 0, frame = 8
 112              		@ frame_needed = 0, uses_anonymous_args = 0
 113              	.LVL2:
 267:Drivers/STM32F1xx_HAL_Driver/Src/stm32f1xx_hal_rcc.c ****    uint32_t tickstart = 0;
ARM GAS  /tmp/ccukyRaG.s 			page 17


 268:Drivers/STM32F1xx_HAL_Driver/Src/stm32f1xx_hal_rcc.c ****   
 269:Drivers/STM32F1xx_HAL_Driver/Src/stm32f1xx_hal_rcc.c ****   /* Check the parameters */
 270:Drivers/STM32F1xx_HAL_Driver/Src/stm32f1xx_hal_rcc.c ****   assert_param(RCC_OscInitStruct != NULL);
 271:Drivers/STM32F1xx_HAL_Driver/Src/stm32f1xx_hal_rcc.c ****   assert_param(IS_RCC_OSCILLATORTYPE(RCC_OscInitStruct->OscillatorType));
 272:Drivers/STM32F1xx_HAL_Driver/Src/stm32f1xx_hal_rcc.c ****   
 273:Drivers/STM32F1xx_HAL_Driver/Src/stm32f1xx_hal_rcc.c ****   /*------------------------------- HSE Configuration ------------------------*/ 
 274:Drivers/STM32F1xx_HAL_Driver/Src/stm32f1xx_hal_rcc.c ****   if(((RCC_OscInitStruct->OscillatorType) & RCC_OSCILLATORTYPE_HSE) == RCC_OSCILLATORTYPE_HSE)
 114              		.loc 1 274 0
 115 0000 0368     		ldr	r3, [r0]
 266:Drivers/STM32F1xx_HAL_Driver/Src/stm32f1xx_hal_rcc.c ****    uint32_t tickstart = 0;
 116              		.loc 1 266 0
 117 0002 2DE9F743 		push	{r0, r1, r2, r4, r5, r6, r7, r8, r9, lr}
 118              	.LCFI1:
 119              		.cfi_def_cfa_offset 40
 120              		.cfi_offset 4, -28
 121              		.cfi_offset 5, -24
 122              		.cfi_offset 6, -20
 123              		.cfi_offset 7, -16
 124              		.cfi_offset 8, -12
 125              		.cfi_offset 9, -8
 126              		.cfi_offset 14, -4
 127              		.loc 1 274 0
 128 0006 DE07     		lsls	r6, r3, #31
 266:Drivers/STM32F1xx_HAL_Driver/Src/stm32f1xx_hal_rcc.c ****    uint32_t tickstart = 0;
 129              		.loc 1 266 0
 130 0008 0546     		mov	r5, r0
 131              		.loc 1 274 0
 132 000a 34D4     		bmi	.L5
 133              	.LVL3:
 134              	.L10:
 275:Drivers/STM32F1xx_HAL_Driver/Src/stm32f1xx_hal_rcc.c ****   {
 276:Drivers/STM32F1xx_HAL_Driver/Src/stm32f1xx_hal_rcc.c ****     /* Check the parameters */
 277:Drivers/STM32F1xx_HAL_Driver/Src/stm32f1xx_hal_rcc.c ****     assert_param(IS_RCC_HSE(RCC_OscInitStruct->HSEState));
 278:Drivers/STM32F1xx_HAL_Driver/Src/stm32f1xx_hal_rcc.c ****         
 279:Drivers/STM32F1xx_HAL_Driver/Src/stm32f1xx_hal_rcc.c ****     /* When the HSE is used as system clock or clock source for PLL in these cases it is not allowe
 280:Drivers/STM32F1xx_HAL_Driver/Src/stm32f1xx_hal_rcc.c ****     if((__HAL_RCC_GET_SYSCLK_SOURCE() == RCC_SYSCLKSOURCE_STATUS_HSE) 
 281:Drivers/STM32F1xx_HAL_Driver/Src/stm32f1xx_hal_rcc.c ****        || ((__HAL_RCC_GET_SYSCLK_SOURCE() == RCC_SYSCLKSOURCE_STATUS_PLLCLK) && (__HAL_RCC_GET_PLL_
 282:Drivers/STM32F1xx_HAL_Driver/Src/stm32f1xx_hal_rcc.c ****     {
 283:Drivers/STM32F1xx_HAL_Driver/Src/stm32f1xx_hal_rcc.c ****       if((__HAL_RCC_GET_FLAG(RCC_FLAG_HSERDY) != RESET) && (RCC_OscInitStruct->HSEState == RCC_HSE_
 284:Drivers/STM32F1xx_HAL_Driver/Src/stm32f1xx_hal_rcc.c ****       {
 285:Drivers/STM32F1xx_HAL_Driver/Src/stm32f1xx_hal_rcc.c ****         return HAL_ERROR;
 286:Drivers/STM32F1xx_HAL_Driver/Src/stm32f1xx_hal_rcc.c ****       }
 287:Drivers/STM32F1xx_HAL_Driver/Src/stm32f1xx_hal_rcc.c ****     }
 288:Drivers/STM32F1xx_HAL_Driver/Src/stm32f1xx_hal_rcc.c ****     else
 289:Drivers/STM32F1xx_HAL_Driver/Src/stm32f1xx_hal_rcc.c ****     {
 290:Drivers/STM32F1xx_HAL_Driver/Src/stm32f1xx_hal_rcc.c ****       /* Set the new HSE configuration ---------------------------------------*/
 291:Drivers/STM32F1xx_HAL_Driver/Src/stm32f1xx_hal_rcc.c ****       __HAL_RCC_HSE_CONFIG(RCC_OscInitStruct->HSEState);
 292:Drivers/STM32F1xx_HAL_Driver/Src/stm32f1xx_hal_rcc.c ****       
 293:Drivers/STM32F1xx_HAL_Driver/Src/stm32f1xx_hal_rcc.c **** 
 294:Drivers/STM32F1xx_HAL_Driver/Src/stm32f1xx_hal_rcc.c ****        /* Check the HSE State */
 295:Drivers/STM32F1xx_HAL_Driver/Src/stm32f1xx_hal_rcc.c ****       if(RCC_OscInitStruct->HSEState != RCC_HSE_OFF)
 296:Drivers/STM32F1xx_HAL_Driver/Src/stm32f1xx_hal_rcc.c ****       {
 297:Drivers/STM32F1xx_HAL_Driver/Src/stm32f1xx_hal_rcc.c ****         /* Get Start Tick */
 298:Drivers/STM32F1xx_HAL_Driver/Src/stm32f1xx_hal_rcc.c ****         tickstart = HAL_GetTick();
 299:Drivers/STM32F1xx_HAL_Driver/Src/stm32f1xx_hal_rcc.c ****         
 300:Drivers/STM32F1xx_HAL_Driver/Src/stm32f1xx_hal_rcc.c ****         /* Wait till HSE is ready */
 301:Drivers/STM32F1xx_HAL_Driver/Src/stm32f1xx_hal_rcc.c ****         while(__HAL_RCC_GET_FLAG(RCC_FLAG_HSERDY) == RESET)
ARM GAS  /tmp/ccukyRaG.s 			page 18


 302:Drivers/STM32F1xx_HAL_Driver/Src/stm32f1xx_hal_rcc.c ****         {
 303:Drivers/STM32F1xx_HAL_Driver/Src/stm32f1xx_hal_rcc.c ****           if((HAL_GetTick() - tickstart ) > HSE_TIMEOUT_VALUE)
 304:Drivers/STM32F1xx_HAL_Driver/Src/stm32f1xx_hal_rcc.c ****           {
 305:Drivers/STM32F1xx_HAL_Driver/Src/stm32f1xx_hal_rcc.c ****             return HAL_TIMEOUT;
 306:Drivers/STM32F1xx_HAL_Driver/Src/stm32f1xx_hal_rcc.c ****           }
 307:Drivers/STM32F1xx_HAL_Driver/Src/stm32f1xx_hal_rcc.c ****         }
 308:Drivers/STM32F1xx_HAL_Driver/Src/stm32f1xx_hal_rcc.c ****       }
 309:Drivers/STM32F1xx_HAL_Driver/Src/stm32f1xx_hal_rcc.c ****       else
 310:Drivers/STM32F1xx_HAL_Driver/Src/stm32f1xx_hal_rcc.c ****       {
 311:Drivers/STM32F1xx_HAL_Driver/Src/stm32f1xx_hal_rcc.c ****         /* Get Start Tick */
 312:Drivers/STM32F1xx_HAL_Driver/Src/stm32f1xx_hal_rcc.c ****         tickstart = HAL_GetTick();
 313:Drivers/STM32F1xx_HAL_Driver/Src/stm32f1xx_hal_rcc.c ****         
 314:Drivers/STM32F1xx_HAL_Driver/Src/stm32f1xx_hal_rcc.c ****         /* Wait till HSE is disabled */
 315:Drivers/STM32F1xx_HAL_Driver/Src/stm32f1xx_hal_rcc.c ****         while(__HAL_RCC_GET_FLAG(RCC_FLAG_HSERDY) != RESET)
 316:Drivers/STM32F1xx_HAL_Driver/Src/stm32f1xx_hal_rcc.c ****         {
 317:Drivers/STM32F1xx_HAL_Driver/Src/stm32f1xx_hal_rcc.c ****            if((HAL_GetTick() - tickstart ) > HSE_TIMEOUT_VALUE)
 318:Drivers/STM32F1xx_HAL_Driver/Src/stm32f1xx_hal_rcc.c ****           {
 319:Drivers/STM32F1xx_HAL_Driver/Src/stm32f1xx_hal_rcc.c ****             return HAL_TIMEOUT;
 320:Drivers/STM32F1xx_HAL_Driver/Src/stm32f1xx_hal_rcc.c ****           }
 321:Drivers/STM32F1xx_HAL_Driver/Src/stm32f1xx_hal_rcc.c ****         }
 322:Drivers/STM32F1xx_HAL_Driver/Src/stm32f1xx_hal_rcc.c ****       }
 323:Drivers/STM32F1xx_HAL_Driver/Src/stm32f1xx_hal_rcc.c ****     }
 324:Drivers/STM32F1xx_HAL_Driver/Src/stm32f1xx_hal_rcc.c ****   }
 325:Drivers/STM32F1xx_HAL_Driver/Src/stm32f1xx_hal_rcc.c ****   /*----------------------------- HSI Configuration --------------------------*/ 
 326:Drivers/STM32F1xx_HAL_Driver/Src/stm32f1xx_hal_rcc.c ****   if(((RCC_OscInitStruct->OscillatorType) & RCC_OSCILLATORTYPE_HSI) == RCC_OSCILLATORTYPE_HSI)
 135              		.loc 1 326 0
 136 000c 2B68     		ldr	r3, [r5]
 137 000e 9C07     		lsls	r4, r3, #30
 138 0010 00F1A780 		bmi	.L6
 139              	.L21:
 327:Drivers/STM32F1xx_HAL_Driver/Src/stm32f1xx_hal_rcc.c ****   {
 328:Drivers/STM32F1xx_HAL_Driver/Src/stm32f1xx_hal_rcc.c ****     /* Check the parameters */
 329:Drivers/STM32F1xx_HAL_Driver/Src/stm32f1xx_hal_rcc.c ****     assert_param(IS_RCC_HSI(RCC_OscInitStruct->HSIState));
 330:Drivers/STM32F1xx_HAL_Driver/Src/stm32f1xx_hal_rcc.c ****     assert_param(IS_RCC_CALIBRATION_VALUE(RCC_OscInitStruct->HSICalibrationValue));
 331:Drivers/STM32F1xx_HAL_Driver/Src/stm32f1xx_hal_rcc.c ****     
 332:Drivers/STM32F1xx_HAL_Driver/Src/stm32f1xx_hal_rcc.c ****     /* Check if HSI is used as system clock or as PLL source when PLL is selected as system clock *
 333:Drivers/STM32F1xx_HAL_Driver/Src/stm32f1xx_hal_rcc.c ****     if((__HAL_RCC_GET_SYSCLK_SOURCE() == RCC_SYSCLKSOURCE_STATUS_HSI) 
 334:Drivers/STM32F1xx_HAL_Driver/Src/stm32f1xx_hal_rcc.c ****        || ((__HAL_RCC_GET_SYSCLK_SOURCE() == RCC_SYSCLKSOURCE_STATUS_PLLCLK) && (__HAL_RCC_GET_PLL_
 335:Drivers/STM32F1xx_HAL_Driver/Src/stm32f1xx_hal_rcc.c ****     {
 336:Drivers/STM32F1xx_HAL_Driver/Src/stm32f1xx_hal_rcc.c ****       /* When HSI is used as system clock it will not disabled */
 337:Drivers/STM32F1xx_HAL_Driver/Src/stm32f1xx_hal_rcc.c ****       if((__HAL_RCC_GET_FLAG(RCC_FLAG_HSIRDY) != RESET) && (RCC_OscInitStruct->HSIState != RCC_HSI_
 338:Drivers/STM32F1xx_HAL_Driver/Src/stm32f1xx_hal_rcc.c ****       {
 339:Drivers/STM32F1xx_HAL_Driver/Src/stm32f1xx_hal_rcc.c ****         return HAL_ERROR;
 340:Drivers/STM32F1xx_HAL_Driver/Src/stm32f1xx_hal_rcc.c ****       }
 341:Drivers/STM32F1xx_HAL_Driver/Src/stm32f1xx_hal_rcc.c ****       /* Otherwise, just the calibration is allowed */
 342:Drivers/STM32F1xx_HAL_Driver/Src/stm32f1xx_hal_rcc.c ****       else
 343:Drivers/STM32F1xx_HAL_Driver/Src/stm32f1xx_hal_rcc.c ****       {
 344:Drivers/STM32F1xx_HAL_Driver/Src/stm32f1xx_hal_rcc.c ****         /* Adjusts the Internal High Speed oscillator (HSI) calibration value.*/
 345:Drivers/STM32F1xx_HAL_Driver/Src/stm32f1xx_hal_rcc.c ****         __HAL_RCC_HSI_CALIBRATIONVALUE_ADJUST(RCC_OscInitStruct->HSICalibrationValue);
 346:Drivers/STM32F1xx_HAL_Driver/Src/stm32f1xx_hal_rcc.c ****       }
 347:Drivers/STM32F1xx_HAL_Driver/Src/stm32f1xx_hal_rcc.c ****     }
 348:Drivers/STM32F1xx_HAL_Driver/Src/stm32f1xx_hal_rcc.c ****     else
 349:Drivers/STM32F1xx_HAL_Driver/Src/stm32f1xx_hal_rcc.c ****     {
 350:Drivers/STM32F1xx_HAL_Driver/Src/stm32f1xx_hal_rcc.c ****       /* Check the HSI State */
 351:Drivers/STM32F1xx_HAL_Driver/Src/stm32f1xx_hal_rcc.c ****       if(RCC_OscInitStruct->HSIState != RCC_HSI_OFF)
 352:Drivers/STM32F1xx_HAL_Driver/Src/stm32f1xx_hal_rcc.c ****       {
 353:Drivers/STM32F1xx_HAL_Driver/Src/stm32f1xx_hal_rcc.c ****        /* Enable the Internal High Speed oscillator (HSI). */
ARM GAS  /tmp/ccukyRaG.s 			page 19


 354:Drivers/STM32F1xx_HAL_Driver/Src/stm32f1xx_hal_rcc.c ****         __HAL_RCC_HSI_ENABLE();
 355:Drivers/STM32F1xx_HAL_Driver/Src/stm32f1xx_hal_rcc.c ****         
 356:Drivers/STM32F1xx_HAL_Driver/Src/stm32f1xx_hal_rcc.c ****         /* Get Start Tick */
 357:Drivers/STM32F1xx_HAL_Driver/Src/stm32f1xx_hal_rcc.c ****         tickstart = HAL_GetTick();
 358:Drivers/STM32F1xx_HAL_Driver/Src/stm32f1xx_hal_rcc.c ****         
 359:Drivers/STM32F1xx_HAL_Driver/Src/stm32f1xx_hal_rcc.c ****         /* Wait till HSI is ready */
 360:Drivers/STM32F1xx_HAL_Driver/Src/stm32f1xx_hal_rcc.c ****         while(__HAL_RCC_GET_FLAG(RCC_FLAG_HSIRDY) == RESET)
 361:Drivers/STM32F1xx_HAL_Driver/Src/stm32f1xx_hal_rcc.c ****         {
 362:Drivers/STM32F1xx_HAL_Driver/Src/stm32f1xx_hal_rcc.c ****           if((HAL_GetTick() - tickstart ) > HSI_TIMEOUT_VALUE)
 363:Drivers/STM32F1xx_HAL_Driver/Src/stm32f1xx_hal_rcc.c ****           {
 364:Drivers/STM32F1xx_HAL_Driver/Src/stm32f1xx_hal_rcc.c ****             return HAL_TIMEOUT;
 365:Drivers/STM32F1xx_HAL_Driver/Src/stm32f1xx_hal_rcc.c ****           }
 366:Drivers/STM32F1xx_HAL_Driver/Src/stm32f1xx_hal_rcc.c ****         }
 367:Drivers/STM32F1xx_HAL_Driver/Src/stm32f1xx_hal_rcc.c ****                 
 368:Drivers/STM32F1xx_HAL_Driver/Src/stm32f1xx_hal_rcc.c ****         /* Adjusts the Internal High Speed oscillator (HSI) calibration value.*/
 369:Drivers/STM32F1xx_HAL_Driver/Src/stm32f1xx_hal_rcc.c ****         __HAL_RCC_HSI_CALIBRATIONVALUE_ADJUST(RCC_OscInitStruct->HSICalibrationValue);
 370:Drivers/STM32F1xx_HAL_Driver/Src/stm32f1xx_hal_rcc.c ****       }
 371:Drivers/STM32F1xx_HAL_Driver/Src/stm32f1xx_hal_rcc.c ****       else
 372:Drivers/STM32F1xx_HAL_Driver/Src/stm32f1xx_hal_rcc.c ****       {
 373:Drivers/STM32F1xx_HAL_Driver/Src/stm32f1xx_hal_rcc.c ****         /* Disable the Internal High Speed oscillator (HSI). */
 374:Drivers/STM32F1xx_HAL_Driver/Src/stm32f1xx_hal_rcc.c ****         __HAL_RCC_HSI_DISABLE();
 375:Drivers/STM32F1xx_HAL_Driver/Src/stm32f1xx_hal_rcc.c ****         
 376:Drivers/STM32F1xx_HAL_Driver/Src/stm32f1xx_hal_rcc.c ****         /* Get Start Tick */
 377:Drivers/STM32F1xx_HAL_Driver/Src/stm32f1xx_hal_rcc.c ****         tickstart = HAL_GetTick();
 378:Drivers/STM32F1xx_HAL_Driver/Src/stm32f1xx_hal_rcc.c ****         
 379:Drivers/STM32F1xx_HAL_Driver/Src/stm32f1xx_hal_rcc.c ****         /* Wait till HSI is disabled */
 380:Drivers/STM32F1xx_HAL_Driver/Src/stm32f1xx_hal_rcc.c ****         while(__HAL_RCC_GET_FLAG(RCC_FLAG_HSIRDY) != RESET)
 381:Drivers/STM32F1xx_HAL_Driver/Src/stm32f1xx_hal_rcc.c ****         {
 382:Drivers/STM32F1xx_HAL_Driver/Src/stm32f1xx_hal_rcc.c ****           if((HAL_GetTick() - tickstart ) > HSI_TIMEOUT_VALUE)
 383:Drivers/STM32F1xx_HAL_Driver/Src/stm32f1xx_hal_rcc.c ****           {
 384:Drivers/STM32F1xx_HAL_Driver/Src/stm32f1xx_hal_rcc.c ****             return HAL_TIMEOUT;
 385:Drivers/STM32F1xx_HAL_Driver/Src/stm32f1xx_hal_rcc.c ****           }
 386:Drivers/STM32F1xx_HAL_Driver/Src/stm32f1xx_hal_rcc.c ****         }
 387:Drivers/STM32F1xx_HAL_Driver/Src/stm32f1xx_hal_rcc.c ****       }
 388:Drivers/STM32F1xx_HAL_Driver/Src/stm32f1xx_hal_rcc.c ****     }
 389:Drivers/STM32F1xx_HAL_Driver/Src/stm32f1xx_hal_rcc.c ****   }
 390:Drivers/STM32F1xx_HAL_Driver/Src/stm32f1xx_hal_rcc.c ****   /*------------------------------ LSI Configuration -------------------------*/ 
 391:Drivers/STM32F1xx_HAL_Driver/Src/stm32f1xx_hal_rcc.c ****   if(((RCC_OscInitStruct->OscillatorType) & RCC_OSCILLATORTYPE_LSI) == RCC_OSCILLATORTYPE_LSI)
 140              		.loc 1 391 0
 141 0014 2B68     		ldr	r3, [r5]
 142 0016 1A07     		lsls	r2, r3, #28
 143 0018 23D5     		bpl	.L32
 392:Drivers/STM32F1xx_HAL_Driver/Src/stm32f1xx_hal_rcc.c ****   {
 393:Drivers/STM32F1xx_HAL_Driver/Src/stm32f1xx_hal_rcc.c ****     /* Check the parameters */
 394:Drivers/STM32F1xx_HAL_Driver/Src/stm32f1xx_hal_rcc.c ****     assert_param(IS_RCC_LSI(RCC_OscInitStruct->LSIState));
 395:Drivers/STM32F1xx_HAL_Driver/Src/stm32f1xx_hal_rcc.c ****     
 396:Drivers/STM32F1xx_HAL_Driver/Src/stm32f1xx_hal_rcc.c ****     /* Check the LSI State */
 397:Drivers/STM32F1xx_HAL_Driver/Src/stm32f1xx_hal_rcc.c ****     if(RCC_OscInitStruct->LSIState != RCC_LSI_OFF)
 144              		.loc 1 397 0
 145 001a AA69     		ldr	r2, [r5, #24]
 146 001c BE4C     		ldr	r4, .L90
 147 001e 0123     		movs	r3, #1
 148 0020 BE49     		ldr	r1, .L90+4
 149 0022 002A     		cmp	r2, #0
 150 0024 00F01581 		beq	.L33
 151              	.LVL4:
 152              	.LBB147:
ARM GAS  /tmp/ccukyRaG.s 			page 20


 153              	.LBB148:
 154              		.loc 2 531 0
 155              		.syntax unified
 156              	@ 531 "Drivers/CMSIS/Include/cmsis_gcc.h" 1
 157 0028 93FAA3F2 		rbit r2, r3
 158              	@ 0 "" 2
 159              	.LVL5:
 160              		.thumb
 161              		.syntax unified
 162              	.LBE148:
 163              	.LBE147:
 398:Drivers/STM32F1xx_HAL_Driver/Src/stm32f1xx_hal_rcc.c ****     {
 399:Drivers/STM32F1xx_HAL_Driver/Src/stm32f1xx_hal_rcc.c ****       /* Enable the Internal Low Speed oscillator (LSI). */
 400:Drivers/STM32F1xx_HAL_Driver/Src/stm32f1xx_hal_rcc.c ****       __HAL_RCC_LSI_ENABLE();
 164              		.loc 1 400 0
 165 002c B2FA82F2 		clz	r2, r2
 166 0030 41F82230 		str	r3, [r1, r2, lsl #2]
 401:Drivers/STM32F1xx_HAL_Driver/Src/stm32f1xx_hal_rcc.c ****       
 402:Drivers/STM32F1xx_HAL_Driver/Src/stm32f1xx_hal_rcc.c ****       /* Get Start Tick */
 403:Drivers/STM32F1xx_HAL_Driver/Src/stm32f1xx_hal_rcc.c ****       tickstart = HAL_GetTick();
 167              		.loc 1 403 0
 168 0034 FFF7FEFF 		bl	HAL_GetTick
 169              	.LVL6:
 170              	.LBB149:
 171              	.LBB150:
 172              		.loc 2 531 0
 173 0038 0226     		movs	r6, #2
 174              	.LBE150:
 175              	.LBE149:
 176              		.loc 1 403 0
 177 003a 0746     		mov	r7, r0
 178              	.LVL7:
 179              	.L34:
 180              	.LBB152:
 181              	.LBB151:
 182              		.loc 2 531 0
 183              		.syntax unified
 184              	@ 531 "Drivers/CMSIS/Include/cmsis_gcc.h" 1
 185 003c 96FAA6F3 		rbit r3, r6
 186              	@ 0 "" 2
 187              	.LVL8:
 188              		.thumb
 189              		.syntax unified
 190              	.LBE151:
 191              	.LBE152:
 192              	.LBB153:
 193              	.LBB154:
 194              		.syntax unified
 195              	@ 531 "Drivers/CMSIS/Include/cmsis_gcc.h" 1
 196 0040 96FAA6F3 		rbit r3, r6
 197              	@ 0 "" 2
 198              	.LVL9:
 199              		.thumb
 200              		.syntax unified
 201              	.LBE154:
 202              	.LBE153:
 404:Drivers/STM32F1xx_HAL_Driver/Src/stm32f1xx_hal_rcc.c ****       
ARM GAS  /tmp/ccukyRaG.s 			page 21


 405:Drivers/STM32F1xx_HAL_Driver/Src/stm32f1xx_hal_rcc.c ****       /* Wait till LSI is ready */  
 406:Drivers/STM32F1xx_HAL_Driver/Src/stm32f1xx_hal_rcc.c ****       while(__HAL_RCC_GET_FLAG(RCC_FLAG_LSIRDY) == RESET)
 203              		.loc 1 406 0
 204 0044 626A     		ldr	r2, [r4, #36]
 205              	.LVL10:
 206              	.LBB155:
 207              	.LBB156:
 208              		.loc 2 531 0
 209              		.syntax unified
 210              	@ 531 "Drivers/CMSIS/Include/cmsis_gcc.h" 1
 211 0046 96FAA6F3 		rbit r3, r6
 212              	@ 0 "" 2
 213              	.LVL11:
 214              		.thumb
 215              		.syntax unified
 216              	.LBE156:
 217              	.LBE155:
 218              		.loc 1 406 0
 219 004a B3FA83F3 		clz	r3, r3
 220 004e 03F01F03 		and	r3, r3, #31
 221 0052 22FA03F3 		lsr	r3, r2, r3
 222 0056 DB07     		lsls	r3, r3, #31
 223 0058 40F1F480 		bpl	.L35
 407:Drivers/STM32F1xx_HAL_Driver/Src/stm32f1xx_hal_rcc.c ****       {
 408:Drivers/STM32F1xx_HAL_Driver/Src/stm32f1xx_hal_rcc.c ****         if((HAL_GetTick() - tickstart ) > LSI_TIMEOUT_VALUE)
 409:Drivers/STM32F1xx_HAL_Driver/Src/stm32f1xx_hal_rcc.c ****         {
 410:Drivers/STM32F1xx_HAL_Driver/Src/stm32f1xx_hal_rcc.c ****           return HAL_TIMEOUT;
 411:Drivers/STM32F1xx_HAL_Driver/Src/stm32f1xx_hal_rcc.c ****         }
 412:Drivers/STM32F1xx_HAL_Driver/Src/stm32f1xx_hal_rcc.c ****       }
 413:Drivers/STM32F1xx_HAL_Driver/Src/stm32f1xx_hal_rcc.c ****       /*  To have a fully stabilized clock in the specified range, a software delay of 1ms 
 414:Drivers/STM32F1xx_HAL_Driver/Src/stm32f1xx_hal_rcc.c ****           should be added.*/
 415:Drivers/STM32F1xx_HAL_Driver/Src/stm32f1xx_hal_rcc.c ****       HAL_Delay(1);
 224              		.loc 1 415 0
 225 005c 0120     		movs	r0, #1
 226 005e FFF7FEFF 		bl	HAL_Delay
 227              	.LVL12:
 228              	.L32:
 416:Drivers/STM32F1xx_HAL_Driver/Src/stm32f1xx_hal_rcc.c ****     }
 417:Drivers/STM32F1xx_HAL_Driver/Src/stm32f1xx_hal_rcc.c ****     else
 418:Drivers/STM32F1xx_HAL_Driver/Src/stm32f1xx_hal_rcc.c ****     {
 419:Drivers/STM32F1xx_HAL_Driver/Src/stm32f1xx_hal_rcc.c ****       /* Disable the Internal Low Speed oscillator (LSI). */
 420:Drivers/STM32F1xx_HAL_Driver/Src/stm32f1xx_hal_rcc.c ****       __HAL_RCC_LSI_DISABLE();
 421:Drivers/STM32F1xx_HAL_Driver/Src/stm32f1xx_hal_rcc.c ****       
 422:Drivers/STM32F1xx_HAL_Driver/Src/stm32f1xx_hal_rcc.c ****       /* Get Start Tick */
 423:Drivers/STM32F1xx_HAL_Driver/Src/stm32f1xx_hal_rcc.c ****       tickstart = HAL_GetTick();
 424:Drivers/STM32F1xx_HAL_Driver/Src/stm32f1xx_hal_rcc.c ****       
 425:Drivers/STM32F1xx_HAL_Driver/Src/stm32f1xx_hal_rcc.c ****       /* Wait till LSI is disabled */  
 426:Drivers/STM32F1xx_HAL_Driver/Src/stm32f1xx_hal_rcc.c ****       while(__HAL_RCC_GET_FLAG(RCC_FLAG_LSIRDY) != RESET)
 427:Drivers/STM32F1xx_HAL_Driver/Src/stm32f1xx_hal_rcc.c ****       {
 428:Drivers/STM32F1xx_HAL_Driver/Src/stm32f1xx_hal_rcc.c ****         if((HAL_GetTick() - tickstart ) > LSI_TIMEOUT_VALUE)
 429:Drivers/STM32F1xx_HAL_Driver/Src/stm32f1xx_hal_rcc.c ****         {
 430:Drivers/STM32F1xx_HAL_Driver/Src/stm32f1xx_hal_rcc.c ****           return HAL_TIMEOUT;
 431:Drivers/STM32F1xx_HAL_Driver/Src/stm32f1xx_hal_rcc.c ****         }
 432:Drivers/STM32F1xx_HAL_Driver/Src/stm32f1xx_hal_rcc.c ****       }
 433:Drivers/STM32F1xx_HAL_Driver/Src/stm32f1xx_hal_rcc.c ****     }
 434:Drivers/STM32F1xx_HAL_Driver/Src/stm32f1xx_hal_rcc.c ****   }
 435:Drivers/STM32F1xx_HAL_Driver/Src/stm32f1xx_hal_rcc.c ****   /*------------------------------ LSE Configuration -------------------------*/ 
ARM GAS  /tmp/ccukyRaG.s 			page 22


 436:Drivers/STM32F1xx_HAL_Driver/Src/stm32f1xx_hal_rcc.c ****   if(((RCC_OscInitStruct->OscillatorType) & RCC_OSCILLATORTYPE_LSE) == RCC_OSCILLATORTYPE_LSE)
 229              		.loc 1 436 0
 230 0062 2B68     		ldr	r3, [r5]
 231 0064 5907     		lsls	r1, r3, #29
 232 0066 00F11481 		bmi	.L39
 233              	.L52:
 437:Drivers/STM32F1xx_HAL_Driver/Src/stm32f1xx_hal_rcc.c ****   {
 438:Drivers/STM32F1xx_HAL_Driver/Src/stm32f1xx_hal_rcc.c ****     /* Check the parameters */
 439:Drivers/STM32F1xx_HAL_Driver/Src/stm32f1xx_hal_rcc.c ****     assert_param(IS_RCC_LSE(RCC_OscInitStruct->LSEState));
 440:Drivers/STM32F1xx_HAL_Driver/Src/stm32f1xx_hal_rcc.c **** 
 441:Drivers/STM32F1xx_HAL_Driver/Src/stm32f1xx_hal_rcc.c ****     /* Enable Power Clock*/
 442:Drivers/STM32F1xx_HAL_Driver/Src/stm32f1xx_hal_rcc.c ****       __HAL_RCC_PWR_CLK_ENABLE();
 443:Drivers/STM32F1xx_HAL_Driver/Src/stm32f1xx_hal_rcc.c ****     
 444:Drivers/STM32F1xx_HAL_Driver/Src/stm32f1xx_hal_rcc.c ****       /* Enable write access to Backup domain */
 445:Drivers/STM32F1xx_HAL_Driver/Src/stm32f1xx_hal_rcc.c ****       SET_BIT(PWR->CR, PWR_CR_DBP);
 446:Drivers/STM32F1xx_HAL_Driver/Src/stm32f1xx_hal_rcc.c ****       
 447:Drivers/STM32F1xx_HAL_Driver/Src/stm32f1xx_hal_rcc.c ****       /* Wait for Backup domain Write protection disable */
 448:Drivers/STM32F1xx_HAL_Driver/Src/stm32f1xx_hal_rcc.c ****       tickstart = HAL_GetTick();
 449:Drivers/STM32F1xx_HAL_Driver/Src/stm32f1xx_hal_rcc.c **** 
 450:Drivers/STM32F1xx_HAL_Driver/Src/stm32f1xx_hal_rcc.c ****     while((PWR->CR & PWR_CR_DBP) == RESET)
 451:Drivers/STM32F1xx_HAL_Driver/Src/stm32f1xx_hal_rcc.c ****       {
 452:Drivers/STM32F1xx_HAL_Driver/Src/stm32f1xx_hal_rcc.c ****         if((HAL_GetTick() - tickstart) > RCC_DBP_TIMEOUT_VALUE)
 453:Drivers/STM32F1xx_HAL_Driver/Src/stm32f1xx_hal_rcc.c ****         {
 454:Drivers/STM32F1xx_HAL_Driver/Src/stm32f1xx_hal_rcc.c ****           return HAL_TIMEOUT;
 455:Drivers/STM32F1xx_HAL_Driver/Src/stm32f1xx_hal_rcc.c ****         }
 456:Drivers/STM32F1xx_HAL_Driver/Src/stm32f1xx_hal_rcc.c ****       }
 457:Drivers/STM32F1xx_HAL_Driver/Src/stm32f1xx_hal_rcc.c **** 
 458:Drivers/STM32F1xx_HAL_Driver/Src/stm32f1xx_hal_rcc.c ****     /* Set the new LSE configuration -----------------------------------------*/
 459:Drivers/STM32F1xx_HAL_Driver/Src/stm32f1xx_hal_rcc.c ****     __HAL_RCC_LSE_CONFIG(RCC_OscInitStruct->LSEState);
 460:Drivers/STM32F1xx_HAL_Driver/Src/stm32f1xx_hal_rcc.c ****     /* Check the LSE State */
 461:Drivers/STM32F1xx_HAL_Driver/Src/stm32f1xx_hal_rcc.c ****     if(RCC_OscInitStruct->LSEState != RCC_LSE_OFF)
 462:Drivers/STM32F1xx_HAL_Driver/Src/stm32f1xx_hal_rcc.c ****     {
 463:Drivers/STM32F1xx_HAL_Driver/Src/stm32f1xx_hal_rcc.c ****       /* Get Start Tick */
 464:Drivers/STM32F1xx_HAL_Driver/Src/stm32f1xx_hal_rcc.c ****       tickstart = HAL_GetTick();
 465:Drivers/STM32F1xx_HAL_Driver/Src/stm32f1xx_hal_rcc.c ****       
 466:Drivers/STM32F1xx_HAL_Driver/Src/stm32f1xx_hal_rcc.c ****       /* Wait till LSE is ready */  
 467:Drivers/STM32F1xx_HAL_Driver/Src/stm32f1xx_hal_rcc.c ****       while(__HAL_RCC_GET_FLAG(RCC_FLAG_LSERDY) == RESET)
 468:Drivers/STM32F1xx_HAL_Driver/Src/stm32f1xx_hal_rcc.c ****       {
 469:Drivers/STM32F1xx_HAL_Driver/Src/stm32f1xx_hal_rcc.c ****         if((HAL_GetTick() - tickstart ) > RCC_LSE_TIMEOUT_VALUE)
 470:Drivers/STM32F1xx_HAL_Driver/Src/stm32f1xx_hal_rcc.c ****         {
 471:Drivers/STM32F1xx_HAL_Driver/Src/stm32f1xx_hal_rcc.c ****           return HAL_TIMEOUT;
 472:Drivers/STM32F1xx_HAL_Driver/Src/stm32f1xx_hal_rcc.c ****         }
 473:Drivers/STM32F1xx_HAL_Driver/Src/stm32f1xx_hal_rcc.c ****       }
 474:Drivers/STM32F1xx_HAL_Driver/Src/stm32f1xx_hal_rcc.c ****     }
 475:Drivers/STM32F1xx_HAL_Driver/Src/stm32f1xx_hal_rcc.c ****     else
 476:Drivers/STM32F1xx_HAL_Driver/Src/stm32f1xx_hal_rcc.c ****     {
 477:Drivers/STM32F1xx_HAL_Driver/Src/stm32f1xx_hal_rcc.c ****       /* Get Start Tick */
 478:Drivers/STM32F1xx_HAL_Driver/Src/stm32f1xx_hal_rcc.c ****       tickstart = HAL_GetTick();
 479:Drivers/STM32F1xx_HAL_Driver/Src/stm32f1xx_hal_rcc.c ****       
 480:Drivers/STM32F1xx_HAL_Driver/Src/stm32f1xx_hal_rcc.c ****       /* Wait till LSE is disabled */  
 481:Drivers/STM32F1xx_HAL_Driver/Src/stm32f1xx_hal_rcc.c ****       while(__HAL_RCC_GET_FLAG(RCC_FLAG_LSERDY) != RESET)
 482:Drivers/STM32F1xx_HAL_Driver/Src/stm32f1xx_hal_rcc.c ****       {
 483:Drivers/STM32F1xx_HAL_Driver/Src/stm32f1xx_hal_rcc.c ****         if((HAL_GetTick() - tickstart ) > RCC_LSE_TIMEOUT_VALUE)
 484:Drivers/STM32F1xx_HAL_Driver/Src/stm32f1xx_hal_rcc.c ****         {
 485:Drivers/STM32F1xx_HAL_Driver/Src/stm32f1xx_hal_rcc.c ****           return HAL_TIMEOUT;
 486:Drivers/STM32F1xx_HAL_Driver/Src/stm32f1xx_hal_rcc.c ****         }
 487:Drivers/STM32F1xx_HAL_Driver/Src/stm32f1xx_hal_rcc.c ****       }
ARM GAS  /tmp/ccukyRaG.s 			page 23


 488:Drivers/STM32F1xx_HAL_Driver/Src/stm32f1xx_hal_rcc.c ****     }
 489:Drivers/STM32F1xx_HAL_Driver/Src/stm32f1xx_hal_rcc.c ****   }
 490:Drivers/STM32F1xx_HAL_Driver/Src/stm32f1xx_hal_rcc.c **** 
 491:Drivers/STM32F1xx_HAL_Driver/Src/stm32f1xx_hal_rcc.c **** #if defined(RCC_CR_PLL2ON)
 492:Drivers/STM32F1xx_HAL_Driver/Src/stm32f1xx_hal_rcc.c ****   /*-------------------------------- PLL2 Configuration -----------------------*/
 493:Drivers/STM32F1xx_HAL_Driver/Src/stm32f1xx_hal_rcc.c ****   /* Check the parameters */
 494:Drivers/STM32F1xx_HAL_Driver/Src/stm32f1xx_hal_rcc.c ****   assert_param(IS_RCC_PLL2(RCC_OscInitStruct->PLL2.PLL2State));
 495:Drivers/STM32F1xx_HAL_Driver/Src/stm32f1xx_hal_rcc.c ****   if ((RCC_OscInitStruct->PLL2.PLL2State) != RCC_PLL2_NONE)
 496:Drivers/STM32F1xx_HAL_Driver/Src/stm32f1xx_hal_rcc.c ****   {
 497:Drivers/STM32F1xx_HAL_Driver/Src/stm32f1xx_hal_rcc.c ****     /* This bit can not be cleared if the PLL2 clock is used indirectly as system 
 498:Drivers/STM32F1xx_HAL_Driver/Src/stm32f1xx_hal_rcc.c ****       clock (i.e. it is used as PLL clock entry that is used as system clock). */
 499:Drivers/STM32F1xx_HAL_Driver/Src/stm32f1xx_hal_rcc.c ****     if((__HAL_RCC_GET_PLL_OSCSOURCE() == RCC_PLLSOURCE_HSE) && \
 500:Drivers/STM32F1xx_HAL_Driver/Src/stm32f1xx_hal_rcc.c ****         (__HAL_RCC_GET_SYSCLK_SOURCE() == RCC_SYSCLKSOURCE_STATUS_PLLCLK) && \
 501:Drivers/STM32F1xx_HAL_Driver/Src/stm32f1xx_hal_rcc.c ****         ((READ_BIT(RCC->CFGR2,RCC_CFGR2_PREDIV1SRC)) == RCC_CFGR2_PREDIV1SRC_PLL2))
 502:Drivers/STM32F1xx_HAL_Driver/Src/stm32f1xx_hal_rcc.c ****     {
 503:Drivers/STM32F1xx_HAL_Driver/Src/stm32f1xx_hal_rcc.c ****       return HAL_ERROR;
 504:Drivers/STM32F1xx_HAL_Driver/Src/stm32f1xx_hal_rcc.c ****     }
 505:Drivers/STM32F1xx_HAL_Driver/Src/stm32f1xx_hal_rcc.c ****     else
 506:Drivers/STM32F1xx_HAL_Driver/Src/stm32f1xx_hal_rcc.c ****     {
 507:Drivers/STM32F1xx_HAL_Driver/Src/stm32f1xx_hal_rcc.c ****       if((RCC_OscInitStruct->PLL2.PLL2State) == RCC_PLL2_ON)
 508:Drivers/STM32F1xx_HAL_Driver/Src/stm32f1xx_hal_rcc.c ****       {
 509:Drivers/STM32F1xx_HAL_Driver/Src/stm32f1xx_hal_rcc.c ****         /* Check the parameters */
 510:Drivers/STM32F1xx_HAL_Driver/Src/stm32f1xx_hal_rcc.c ****         assert_param(IS_RCC_PLL2_MUL(RCC_OscInitStruct->PLL2.PLL2MUL));
 511:Drivers/STM32F1xx_HAL_Driver/Src/stm32f1xx_hal_rcc.c ****         assert_param(IS_RCC_HSE_PREDIV2(RCC_OscInitStruct->PLL2.HSEPrediv2Value));
 512:Drivers/STM32F1xx_HAL_Driver/Src/stm32f1xx_hal_rcc.c **** 
 513:Drivers/STM32F1xx_HAL_Driver/Src/stm32f1xx_hal_rcc.c ****         /* Prediv2 can be written only when the PLLI2S is disabled. */
 514:Drivers/STM32F1xx_HAL_Driver/Src/stm32f1xx_hal_rcc.c ****         /* Return an error only if new value is different from the programmed value */
 515:Drivers/STM32F1xx_HAL_Driver/Src/stm32f1xx_hal_rcc.c ****         if (HAL_IS_BIT_SET(RCC->CR,RCC_CR_PLL3ON) && \
 516:Drivers/STM32F1xx_HAL_Driver/Src/stm32f1xx_hal_rcc.c ****           (__HAL_RCC_HSE_GET_PREDIV2() != RCC_OscInitStruct->PLL2.HSEPrediv2Value))
 517:Drivers/STM32F1xx_HAL_Driver/Src/stm32f1xx_hal_rcc.c ****         {
 518:Drivers/STM32F1xx_HAL_Driver/Src/stm32f1xx_hal_rcc.c ****           return HAL_ERROR;
 519:Drivers/STM32F1xx_HAL_Driver/Src/stm32f1xx_hal_rcc.c ****         }
 520:Drivers/STM32F1xx_HAL_Driver/Src/stm32f1xx_hal_rcc.c ****         
 521:Drivers/STM32F1xx_HAL_Driver/Src/stm32f1xx_hal_rcc.c ****         /* Disable the main PLL2. */
 522:Drivers/STM32F1xx_HAL_Driver/Src/stm32f1xx_hal_rcc.c ****         __HAL_RCC_PLL2_DISABLE();
 523:Drivers/STM32F1xx_HAL_Driver/Src/stm32f1xx_hal_rcc.c ****         
 524:Drivers/STM32F1xx_HAL_Driver/Src/stm32f1xx_hal_rcc.c ****         /* Get Start Tick */
 525:Drivers/STM32F1xx_HAL_Driver/Src/stm32f1xx_hal_rcc.c ****         tickstart = HAL_GetTick();
 526:Drivers/STM32F1xx_HAL_Driver/Src/stm32f1xx_hal_rcc.c ****         
 527:Drivers/STM32F1xx_HAL_Driver/Src/stm32f1xx_hal_rcc.c ****         /* Wait till PLL2 is disabled */
 528:Drivers/STM32F1xx_HAL_Driver/Src/stm32f1xx_hal_rcc.c ****         while(__HAL_RCC_GET_FLAG(RCC_FLAG_PLL2RDY) != RESET)
 529:Drivers/STM32F1xx_HAL_Driver/Src/stm32f1xx_hal_rcc.c ****         {
 530:Drivers/STM32F1xx_HAL_Driver/Src/stm32f1xx_hal_rcc.c ****           if((HAL_GetTick() - tickstart ) > PLL2_TIMEOUT_VALUE)
 531:Drivers/STM32F1xx_HAL_Driver/Src/stm32f1xx_hal_rcc.c ****           {
 532:Drivers/STM32F1xx_HAL_Driver/Src/stm32f1xx_hal_rcc.c ****             return HAL_TIMEOUT;
 533:Drivers/STM32F1xx_HAL_Driver/Src/stm32f1xx_hal_rcc.c ****           }
 534:Drivers/STM32F1xx_HAL_Driver/Src/stm32f1xx_hal_rcc.c ****         }
 535:Drivers/STM32F1xx_HAL_Driver/Src/stm32f1xx_hal_rcc.c ****         
 536:Drivers/STM32F1xx_HAL_Driver/Src/stm32f1xx_hal_rcc.c ****         /* Configure the HSE prediv2 factor --------------------------------*/
 537:Drivers/STM32F1xx_HAL_Driver/Src/stm32f1xx_hal_rcc.c ****         __HAL_RCC_HSE_PREDIV2_CONFIG(RCC_OscInitStruct->PLL2.HSEPrediv2Value);
 538:Drivers/STM32F1xx_HAL_Driver/Src/stm32f1xx_hal_rcc.c **** 
 539:Drivers/STM32F1xx_HAL_Driver/Src/stm32f1xx_hal_rcc.c ****         /* Configure the main PLL2 multiplication factors. */
 540:Drivers/STM32F1xx_HAL_Driver/Src/stm32f1xx_hal_rcc.c ****         __HAL_RCC_PLL2_CONFIG(RCC_OscInitStruct->PLL2.PLL2MUL);
 541:Drivers/STM32F1xx_HAL_Driver/Src/stm32f1xx_hal_rcc.c ****         
 542:Drivers/STM32F1xx_HAL_Driver/Src/stm32f1xx_hal_rcc.c ****         /* Enable the main PLL2. */
 543:Drivers/STM32F1xx_HAL_Driver/Src/stm32f1xx_hal_rcc.c ****         __HAL_RCC_PLL2_ENABLE();
 544:Drivers/STM32F1xx_HAL_Driver/Src/stm32f1xx_hal_rcc.c ****         
ARM GAS  /tmp/ccukyRaG.s 			page 24


 545:Drivers/STM32F1xx_HAL_Driver/Src/stm32f1xx_hal_rcc.c ****         /* Get Start Tick */
 546:Drivers/STM32F1xx_HAL_Driver/Src/stm32f1xx_hal_rcc.c ****         tickstart = HAL_GetTick();
 547:Drivers/STM32F1xx_HAL_Driver/Src/stm32f1xx_hal_rcc.c ****         
 548:Drivers/STM32F1xx_HAL_Driver/Src/stm32f1xx_hal_rcc.c ****         /* Wait till PLL2 is ready */
 549:Drivers/STM32F1xx_HAL_Driver/Src/stm32f1xx_hal_rcc.c ****         while(__HAL_RCC_GET_FLAG(RCC_FLAG_PLL2RDY)  == RESET)
 550:Drivers/STM32F1xx_HAL_Driver/Src/stm32f1xx_hal_rcc.c ****         {
 551:Drivers/STM32F1xx_HAL_Driver/Src/stm32f1xx_hal_rcc.c ****           if((HAL_GetTick() - tickstart ) > PLL2_TIMEOUT_VALUE)
 552:Drivers/STM32F1xx_HAL_Driver/Src/stm32f1xx_hal_rcc.c ****           {
 553:Drivers/STM32F1xx_HAL_Driver/Src/stm32f1xx_hal_rcc.c ****             return HAL_TIMEOUT;
 554:Drivers/STM32F1xx_HAL_Driver/Src/stm32f1xx_hal_rcc.c ****           }
 555:Drivers/STM32F1xx_HAL_Driver/Src/stm32f1xx_hal_rcc.c ****         }
 556:Drivers/STM32F1xx_HAL_Driver/Src/stm32f1xx_hal_rcc.c ****       }
 557:Drivers/STM32F1xx_HAL_Driver/Src/stm32f1xx_hal_rcc.c ****       else
 558:Drivers/STM32F1xx_HAL_Driver/Src/stm32f1xx_hal_rcc.c ****       {
 559:Drivers/STM32F1xx_HAL_Driver/Src/stm32f1xx_hal_rcc.c ****        /* Set PREDIV1 source to HSE */
 560:Drivers/STM32F1xx_HAL_Driver/Src/stm32f1xx_hal_rcc.c ****         CLEAR_BIT(RCC->CFGR2, RCC_CFGR2_PREDIV1SRC);
 561:Drivers/STM32F1xx_HAL_Driver/Src/stm32f1xx_hal_rcc.c **** 
 562:Drivers/STM32F1xx_HAL_Driver/Src/stm32f1xx_hal_rcc.c ****         /* Disable the main PLL2. */
 563:Drivers/STM32F1xx_HAL_Driver/Src/stm32f1xx_hal_rcc.c ****         __HAL_RCC_PLL2_DISABLE();
 564:Drivers/STM32F1xx_HAL_Driver/Src/stm32f1xx_hal_rcc.c ****  
 565:Drivers/STM32F1xx_HAL_Driver/Src/stm32f1xx_hal_rcc.c ****         /* Get Start Tick */
 566:Drivers/STM32F1xx_HAL_Driver/Src/stm32f1xx_hal_rcc.c ****         tickstart = HAL_GetTick();
 567:Drivers/STM32F1xx_HAL_Driver/Src/stm32f1xx_hal_rcc.c ****         
 568:Drivers/STM32F1xx_HAL_Driver/Src/stm32f1xx_hal_rcc.c ****         /* Wait till PLL2 is disabled */  
 569:Drivers/STM32F1xx_HAL_Driver/Src/stm32f1xx_hal_rcc.c ****         while(__HAL_RCC_GET_FLAG(RCC_FLAG_PLL2RDY)  != RESET)
 570:Drivers/STM32F1xx_HAL_Driver/Src/stm32f1xx_hal_rcc.c ****         {
 571:Drivers/STM32F1xx_HAL_Driver/Src/stm32f1xx_hal_rcc.c ****           if((HAL_GetTick() - tickstart ) > PLL2_TIMEOUT_VALUE)
 572:Drivers/STM32F1xx_HAL_Driver/Src/stm32f1xx_hal_rcc.c ****           {
 573:Drivers/STM32F1xx_HAL_Driver/Src/stm32f1xx_hal_rcc.c ****             return HAL_TIMEOUT;
 574:Drivers/STM32F1xx_HAL_Driver/Src/stm32f1xx_hal_rcc.c ****           }
 575:Drivers/STM32F1xx_HAL_Driver/Src/stm32f1xx_hal_rcc.c ****         }
 576:Drivers/STM32F1xx_HAL_Driver/Src/stm32f1xx_hal_rcc.c ****       }
 577:Drivers/STM32F1xx_HAL_Driver/Src/stm32f1xx_hal_rcc.c ****     }
 578:Drivers/STM32F1xx_HAL_Driver/Src/stm32f1xx_hal_rcc.c ****   }
 579:Drivers/STM32F1xx_HAL_Driver/Src/stm32f1xx_hal_rcc.c **** 
 580:Drivers/STM32F1xx_HAL_Driver/Src/stm32f1xx_hal_rcc.c **** #endif /* RCC_CR_PLL2ON */
 581:Drivers/STM32F1xx_HAL_Driver/Src/stm32f1xx_hal_rcc.c ****   /*-------------------------------- PLL Configuration -----------------------*/
 582:Drivers/STM32F1xx_HAL_Driver/Src/stm32f1xx_hal_rcc.c ****   /* Check the parameters */
 583:Drivers/STM32F1xx_HAL_Driver/Src/stm32f1xx_hal_rcc.c ****   assert_param(IS_RCC_PLL(RCC_OscInitStruct->PLL.PLLState));
 584:Drivers/STM32F1xx_HAL_Driver/Src/stm32f1xx_hal_rcc.c ****   if ((RCC_OscInitStruct->PLL.PLLState) != RCC_PLL_NONE)
 234              		.loc 1 584 0
 235 006a EA69     		ldr	r2, [r5, #28]
 236 006c 002A     		cmp	r2, #0
 237 006e 40F09381 		bne	.L40
 238              	.LVL13:
 239              	.L41:
 585:Drivers/STM32F1xx_HAL_Driver/Src/stm32f1xx_hal_rcc.c ****   {
 586:Drivers/STM32F1xx_HAL_Driver/Src/stm32f1xx_hal_rcc.c ****     /* Check if the PLL is used as system clock or not */
 587:Drivers/STM32F1xx_HAL_Driver/Src/stm32f1xx_hal_rcc.c ****     if(__HAL_RCC_GET_SYSCLK_SOURCE() != RCC_SYSCLKSOURCE_STATUS_PLLCLK)
 588:Drivers/STM32F1xx_HAL_Driver/Src/stm32f1xx_hal_rcc.c ****     { 
 589:Drivers/STM32F1xx_HAL_Driver/Src/stm32f1xx_hal_rcc.c ****       if((RCC_OscInitStruct->PLL.PLLState) == RCC_PLL_ON)
 590:Drivers/STM32F1xx_HAL_Driver/Src/stm32f1xx_hal_rcc.c ****       {
 591:Drivers/STM32F1xx_HAL_Driver/Src/stm32f1xx_hal_rcc.c ****         /* Check the parameters */
 592:Drivers/STM32F1xx_HAL_Driver/Src/stm32f1xx_hal_rcc.c ****         assert_param(IS_RCC_PLLSOURCE(RCC_OscInitStruct->PLL.PLLSource));
 593:Drivers/STM32F1xx_HAL_Driver/Src/stm32f1xx_hal_rcc.c ****         assert_param(IS_RCC_PLL_MUL(RCC_OscInitStruct->PLL.PLLMUL));
 594:Drivers/STM32F1xx_HAL_Driver/Src/stm32f1xx_hal_rcc.c ****   
 595:Drivers/STM32F1xx_HAL_Driver/Src/stm32f1xx_hal_rcc.c ****         /* Disable the main PLL. */
ARM GAS  /tmp/ccukyRaG.s 			page 25


 596:Drivers/STM32F1xx_HAL_Driver/Src/stm32f1xx_hal_rcc.c ****         __HAL_RCC_PLL_DISABLE();
 597:Drivers/STM32F1xx_HAL_Driver/Src/stm32f1xx_hal_rcc.c ****         
 598:Drivers/STM32F1xx_HAL_Driver/Src/stm32f1xx_hal_rcc.c ****         /* Get Start Tick */
 599:Drivers/STM32F1xx_HAL_Driver/Src/stm32f1xx_hal_rcc.c ****         tickstart = HAL_GetTick();
 600:Drivers/STM32F1xx_HAL_Driver/Src/stm32f1xx_hal_rcc.c ****         
 601:Drivers/STM32F1xx_HAL_Driver/Src/stm32f1xx_hal_rcc.c ****         /* Wait till PLL is disabled */
 602:Drivers/STM32F1xx_HAL_Driver/Src/stm32f1xx_hal_rcc.c ****         while(__HAL_RCC_GET_FLAG(RCC_FLAG_PLLRDY)  != RESET)
 603:Drivers/STM32F1xx_HAL_Driver/Src/stm32f1xx_hal_rcc.c ****         {
 604:Drivers/STM32F1xx_HAL_Driver/Src/stm32f1xx_hal_rcc.c ****           if((HAL_GetTick() - tickstart ) > PLL_TIMEOUT_VALUE)
 605:Drivers/STM32F1xx_HAL_Driver/Src/stm32f1xx_hal_rcc.c ****           {
 606:Drivers/STM32F1xx_HAL_Driver/Src/stm32f1xx_hal_rcc.c ****             return HAL_TIMEOUT;
 607:Drivers/STM32F1xx_HAL_Driver/Src/stm32f1xx_hal_rcc.c ****           }
 608:Drivers/STM32F1xx_HAL_Driver/Src/stm32f1xx_hal_rcc.c ****         }
 609:Drivers/STM32F1xx_HAL_Driver/Src/stm32f1xx_hal_rcc.c **** 
 610:Drivers/STM32F1xx_HAL_Driver/Src/stm32f1xx_hal_rcc.c ****         /* Configure the HSE prediv factor --------------------------------*/
 611:Drivers/STM32F1xx_HAL_Driver/Src/stm32f1xx_hal_rcc.c ****         /* It can be written only when the PLL is disabled. Not used in PLL source is different tha
 612:Drivers/STM32F1xx_HAL_Driver/Src/stm32f1xx_hal_rcc.c ****         if(RCC_OscInitStruct->PLL.PLLSource == RCC_PLLSOURCE_HSE)
 613:Drivers/STM32F1xx_HAL_Driver/Src/stm32f1xx_hal_rcc.c ****         {
 614:Drivers/STM32F1xx_HAL_Driver/Src/stm32f1xx_hal_rcc.c ****           /* Check the parameter */
 615:Drivers/STM32F1xx_HAL_Driver/Src/stm32f1xx_hal_rcc.c ****           assert_param(IS_RCC_HSE_PREDIV(RCC_OscInitStruct->HSEPredivValue));
 616:Drivers/STM32F1xx_HAL_Driver/Src/stm32f1xx_hal_rcc.c **** #if defined(RCC_CFGR2_PREDIV1SRC)
 617:Drivers/STM32F1xx_HAL_Driver/Src/stm32f1xx_hal_rcc.c ****           assert_param(IS_RCC_PREDIV1_SOURCE(RCC_OscInitStruct->Prediv1Source));
 618:Drivers/STM32F1xx_HAL_Driver/Src/stm32f1xx_hal_rcc.c ****           
 619:Drivers/STM32F1xx_HAL_Driver/Src/stm32f1xx_hal_rcc.c ****           /* Set PREDIV1 source */
 620:Drivers/STM32F1xx_HAL_Driver/Src/stm32f1xx_hal_rcc.c ****           SET_BIT(RCC->CFGR2, RCC_OscInitStruct->Prediv1Source);
 621:Drivers/STM32F1xx_HAL_Driver/Src/stm32f1xx_hal_rcc.c **** #endif /* RCC_CFGR2_PREDIV1SRC */
 622:Drivers/STM32F1xx_HAL_Driver/Src/stm32f1xx_hal_rcc.c **** 
 623:Drivers/STM32F1xx_HAL_Driver/Src/stm32f1xx_hal_rcc.c ****           /* Set PREDIV1 Value */
 624:Drivers/STM32F1xx_HAL_Driver/Src/stm32f1xx_hal_rcc.c ****           __HAL_RCC_HSE_PREDIV_CONFIG(RCC_OscInitStruct->HSEPredivValue);
 625:Drivers/STM32F1xx_HAL_Driver/Src/stm32f1xx_hal_rcc.c ****         }
 626:Drivers/STM32F1xx_HAL_Driver/Src/stm32f1xx_hal_rcc.c **** 
 627:Drivers/STM32F1xx_HAL_Driver/Src/stm32f1xx_hal_rcc.c ****         /* Configure the main PLL clock source and multiplication factors. */
 628:Drivers/STM32F1xx_HAL_Driver/Src/stm32f1xx_hal_rcc.c ****         __HAL_RCC_PLL_CONFIG(RCC_OscInitStruct->PLL.PLLSource,
 629:Drivers/STM32F1xx_HAL_Driver/Src/stm32f1xx_hal_rcc.c ****                              RCC_OscInitStruct->PLL.PLLMUL);
 630:Drivers/STM32F1xx_HAL_Driver/Src/stm32f1xx_hal_rcc.c ****         /* Enable the main PLL. */
 631:Drivers/STM32F1xx_HAL_Driver/Src/stm32f1xx_hal_rcc.c ****         __HAL_RCC_PLL_ENABLE();
 632:Drivers/STM32F1xx_HAL_Driver/Src/stm32f1xx_hal_rcc.c ****         
 633:Drivers/STM32F1xx_HAL_Driver/Src/stm32f1xx_hal_rcc.c ****         /* Get Start Tick */
 634:Drivers/STM32F1xx_HAL_Driver/Src/stm32f1xx_hal_rcc.c ****         tickstart = HAL_GetTick();
 635:Drivers/STM32F1xx_HAL_Driver/Src/stm32f1xx_hal_rcc.c ****         
 636:Drivers/STM32F1xx_HAL_Driver/Src/stm32f1xx_hal_rcc.c ****         /* Wait till PLL is ready */
 637:Drivers/STM32F1xx_HAL_Driver/Src/stm32f1xx_hal_rcc.c ****         while(__HAL_RCC_GET_FLAG(RCC_FLAG_PLLRDY)  == RESET)
 638:Drivers/STM32F1xx_HAL_Driver/Src/stm32f1xx_hal_rcc.c ****         {
 639:Drivers/STM32F1xx_HAL_Driver/Src/stm32f1xx_hal_rcc.c ****           if((HAL_GetTick() - tickstart ) > PLL_TIMEOUT_VALUE)
 640:Drivers/STM32F1xx_HAL_Driver/Src/stm32f1xx_hal_rcc.c ****           {
 641:Drivers/STM32F1xx_HAL_Driver/Src/stm32f1xx_hal_rcc.c ****             return HAL_TIMEOUT;
 642:Drivers/STM32F1xx_HAL_Driver/Src/stm32f1xx_hal_rcc.c ****           }
 643:Drivers/STM32F1xx_HAL_Driver/Src/stm32f1xx_hal_rcc.c ****         }
 644:Drivers/STM32F1xx_HAL_Driver/Src/stm32f1xx_hal_rcc.c ****       }
 645:Drivers/STM32F1xx_HAL_Driver/Src/stm32f1xx_hal_rcc.c ****       else
 646:Drivers/STM32F1xx_HAL_Driver/Src/stm32f1xx_hal_rcc.c ****       {
 647:Drivers/STM32F1xx_HAL_Driver/Src/stm32f1xx_hal_rcc.c ****         /* Disable the main PLL. */
 648:Drivers/STM32F1xx_HAL_Driver/Src/stm32f1xx_hal_rcc.c ****         __HAL_RCC_PLL_DISABLE();
 649:Drivers/STM32F1xx_HAL_Driver/Src/stm32f1xx_hal_rcc.c ****  
 650:Drivers/STM32F1xx_HAL_Driver/Src/stm32f1xx_hal_rcc.c ****         /* Get Start Tick */
 651:Drivers/STM32F1xx_HAL_Driver/Src/stm32f1xx_hal_rcc.c ****         tickstart = HAL_GetTick();
 652:Drivers/STM32F1xx_HAL_Driver/Src/stm32f1xx_hal_rcc.c ****         
ARM GAS  /tmp/ccukyRaG.s 			page 26


 653:Drivers/STM32F1xx_HAL_Driver/Src/stm32f1xx_hal_rcc.c ****         /* Wait till PLL is disabled */  
 654:Drivers/STM32F1xx_HAL_Driver/Src/stm32f1xx_hal_rcc.c ****         while(__HAL_RCC_GET_FLAG(RCC_FLAG_PLLRDY)  != RESET)
 655:Drivers/STM32F1xx_HAL_Driver/Src/stm32f1xx_hal_rcc.c ****         {
 656:Drivers/STM32F1xx_HAL_Driver/Src/stm32f1xx_hal_rcc.c ****           if((HAL_GetTick() - tickstart ) > PLL_TIMEOUT_VALUE)
 657:Drivers/STM32F1xx_HAL_Driver/Src/stm32f1xx_hal_rcc.c ****           {
 658:Drivers/STM32F1xx_HAL_Driver/Src/stm32f1xx_hal_rcc.c ****             return HAL_TIMEOUT;
 659:Drivers/STM32F1xx_HAL_Driver/Src/stm32f1xx_hal_rcc.c ****           }
 660:Drivers/STM32F1xx_HAL_Driver/Src/stm32f1xx_hal_rcc.c ****         }
 661:Drivers/STM32F1xx_HAL_Driver/Src/stm32f1xx_hal_rcc.c ****       }
 662:Drivers/STM32F1xx_HAL_Driver/Src/stm32f1xx_hal_rcc.c ****     }
 663:Drivers/STM32F1xx_HAL_Driver/Src/stm32f1xx_hal_rcc.c ****     else
 664:Drivers/STM32F1xx_HAL_Driver/Src/stm32f1xx_hal_rcc.c ****     {
 665:Drivers/STM32F1xx_HAL_Driver/Src/stm32f1xx_hal_rcc.c ****       return HAL_ERROR;
 666:Drivers/STM32F1xx_HAL_Driver/Src/stm32f1xx_hal_rcc.c ****     }
 667:Drivers/STM32F1xx_HAL_Driver/Src/stm32f1xx_hal_rcc.c ****   }
 668:Drivers/STM32F1xx_HAL_Driver/Src/stm32f1xx_hal_rcc.c ****   
 669:Drivers/STM32F1xx_HAL_Driver/Src/stm32f1xx_hal_rcc.c ****   return HAL_OK;
 240              		.loc 1 669 0
 241 0072 0020     		movs	r0, #0
 242 0074 20E0     		b	.L84
 243              	.LVL14:
 244              	.L5:
 280:Drivers/STM32F1xx_HAL_Driver/Src/stm32f1xx_hal_rcc.c ****        || ((__HAL_RCC_GET_SYSCLK_SOURCE() == RCC_SYSCLKSOURCE_STATUS_PLLCLK) && (__HAL_RCC_GET_PLL_
 245              		.loc 1 280 0
 246 0076 A84C     		ldr	r4, .L90
 247 0078 6368     		ldr	r3, [r4, #4]
 248 007a 03F00C03 		and	r3, r3, #12
 249 007e 042B     		cmp	r3, #4
 250 0080 07D0     		beq	.L8
 281:Drivers/STM32F1xx_HAL_Driver/Src/stm32f1xx_hal_rcc.c ****     {
 251              		.loc 1 281 0
 252 0082 6368     		ldr	r3, [r4, #4]
 253 0084 03F00C03 		and	r3, r3, #12
 254 0088 082B     		cmp	r3, #8
 255 008a 18D1     		bne	.L9
 281:Drivers/STM32F1xx_HAL_Driver/Src/stm32f1xx_hal_rcc.c ****     {
 256              		.loc 1 281 0 is_stmt 0 discriminator 1
 257 008c 6368     		ldr	r3, [r4, #4]
 258 008e D803     		lsls	r0, r3, #15
 259              	.LVL15:
 260 0090 15D5     		bpl	.L9
 261              	.L8:
 262              	.LVL16:
 263              	.LBB157:
 264              	.LBB158:
 265              		.loc 2 531 0 is_stmt 1
 266 0092 4FF40033 		mov	r3, #131072
 267              		.syntax unified
 268              	@ 531 "Drivers/CMSIS/Include/cmsis_gcc.h" 1
 269 0096 93FAA3F2 		rbit r2, r3
 270              	@ 0 "" 2
 271              	.LVL17:
 272              		.thumb
 273              		.syntax unified
 274              	.LBE158:
 275              	.LBE157:
 283:Drivers/STM32F1xx_HAL_Driver/Src/stm32f1xx_hal_rcc.c ****       {
ARM GAS  /tmp/ccukyRaG.s 			page 27


 276              		.loc 1 283 0
 277 009a 2268     		ldr	r2, [r4]
 278              	.LVL18:
 279              	.LBB159:
 280              	.LBB160:
 281              		.loc 2 531 0
 282              		.syntax unified
 283              	@ 531 "Drivers/CMSIS/Include/cmsis_gcc.h" 1
 284 009c 93FAA3F3 		rbit r3, r3
 285              	@ 0 "" 2
 286              	.LVL19:
 287              		.thumb
 288              		.syntax unified
 289              	.LBE160:
 290              	.LBE159:
 283:Drivers/STM32F1xx_HAL_Driver/Src/stm32f1xx_hal_rcc.c ****       {
 291              		.loc 1 283 0
 292 00a0 B3FA83F3 		clz	r3, r3
 293 00a4 03F01F03 		and	r3, r3, #31
 294 00a8 22FA03F3 		lsr	r3, r2, r3
 295 00ac D907     		lsls	r1, r3, #31
 296 00ae ADD5     		bpl	.L10
 283:Drivers/STM32F1xx_HAL_Driver/Src/stm32f1xx_hal_rcc.c ****       {
 297              		.loc 1 283 0 is_stmt 0 discriminator 9
 298 00b0 6B68     		ldr	r3, [r5, #4]
 299 00b2 002B     		cmp	r3, #0
 300 00b4 AAD1     		bne	.L10
 301              	.LVL20:
 302              	.L25:
 285:Drivers/STM32F1xx_HAL_Driver/Src/stm32f1xx_hal_rcc.c ****       }
 303              		.loc 1 285 0 is_stmt 1
 304 00b6 0120     		movs	r0, #1
 305              	.LVL21:
 306              	.L84:
 670:Drivers/STM32F1xx_HAL_Driver/Src/stm32f1xx_hal_rcc.c **** }
 307              		.loc 1 670 0
 308 00b8 03B0     		add	sp, sp, #12
 309              	.LCFI2:
 310              		.cfi_remember_state
 311              		.cfi_def_cfa_offset 28
 312              		@ sp needed
 313 00ba BDE8F083 		pop	{r4, r5, r6, r7, r8, r9, pc}
 314              	.LVL22:
 315              	.L9:
 316              	.LCFI3:
 317              		.cfi_restore_state
 291:Drivers/STM32F1xx_HAL_Driver/Src/stm32f1xx_hal_rcc.c ****       
 318              		.loc 1 291 0
 319 00be 6B68     		ldr	r3, [r5, #4]
 320 00c0 B3F5803F 		cmp	r3, #65536
 321 00c4 1CD1     		bne	.L12
 322              	.L88:
 291:Drivers/STM32F1xx_HAL_Driver/Src/stm32f1xx_hal_rcc.c ****       
 323              		.loc 1 291 0 is_stmt 0 discriminator 5
 324 00c6 2368     		ldr	r3, [r4]
 325 00c8 43F48033 		orr	r3, r3, #65536
 326              	.L86:
ARM GAS  /tmp/ccukyRaG.s 			page 28


 291:Drivers/STM32F1xx_HAL_Driver/Src/stm32f1xx_hal_rcc.c ****       
 327              		.loc 1 291 0 discriminator 6
 328 00cc 2360     		str	r3, [r4]
 298:Drivers/STM32F1xx_HAL_Driver/Src/stm32f1xx_hal_rcc.c ****         
 329              		.loc 1 298 0 is_stmt 1 discriminator 6
 330 00ce FFF7FEFF 		bl	HAL_GetTick
 331              	.LVL23:
 332              	.LBB161:
 333              	.LBB162:
 334              		.loc 2 531 0 discriminator 6
 335 00d2 4FF40036 		mov	r6, #131072
 336              	.LBE162:
 337              	.LBE161:
 298:Drivers/STM32F1xx_HAL_Driver/Src/stm32f1xx_hal_rcc.c ****         
 338              		.loc 1 298 0 discriminator 6
 339 00d6 0746     		mov	r7, r0
 340              	.LVL24:
 341              	.L17:
 342              	.LBB164:
 343              	.LBB163:
 344              		.loc 2 531 0
 345              		.syntax unified
 346              	@ 531 "Drivers/CMSIS/Include/cmsis_gcc.h" 1
 347 00d8 96FAA6F3 		rbit r3, r6
 348              	@ 0 "" 2
 349              	.LVL25:
 350              		.thumb
 351              		.syntax unified
 352              	.LBE163:
 353              	.LBE164:
 301:Drivers/STM32F1xx_HAL_Driver/Src/stm32f1xx_hal_rcc.c ****         {
 354              		.loc 1 301 0
 355 00dc 2268     		ldr	r2, [r4]
 356              	.LVL26:
 357              	.LBB165:
 358              	.LBB166:
 359              		.loc 2 531 0
 360              		.syntax unified
 361              	@ 531 "Drivers/CMSIS/Include/cmsis_gcc.h" 1
 362 00de 96FAA6F3 		rbit r3, r6
 363              	@ 0 "" 2
 364              	.LVL27:
 365              		.thumb
 366              		.syntax unified
 367              	.LBE166:
 368              	.LBE165:
 301:Drivers/STM32F1xx_HAL_Driver/Src/stm32f1xx_hal_rcc.c ****         {
 369              		.loc 1 301 0
 370 00e2 B3FA83F3 		clz	r3, r3
 371 00e6 03F01F03 		and	r3, r3, #31
 372 00ea 22FA03F3 		lsr	r3, r2, r3
 373 00ee DA07     		lsls	r2, r3, #31
 374 00f0 8CD4     		bmi	.L10
 303:Drivers/STM32F1xx_HAL_Driver/Src/stm32f1xx_hal_rcc.c ****           {
 375              		.loc 1 303 0
 376 00f2 FFF7FEFF 		bl	HAL_GetTick
 377              	.LVL28:
ARM GAS  /tmp/ccukyRaG.s 			page 29


 378 00f6 C01B     		subs	r0, r0, r7
 379 00f8 6428     		cmp	r0, #100
 380 00fa EDD9     		bls	.L17
 381              	.LVL29:
 382              	.L19:
 305:Drivers/STM32F1xx_HAL_Driver/Src/stm32f1xx_hal_rcc.c ****           }
 383              		.loc 1 305 0
 384 00fc 0320     		movs	r0, #3
 385 00fe DBE7     		b	.L84
 386              	.LVL30:
 387              	.L12:
 291:Drivers/STM32F1xx_HAL_Driver/Src/stm32f1xx_hal_rcc.c ****       
 388              		.loc 1 291 0 discriminator 2
 389 0100 03BB     		cbnz	r3, .L14
 291:Drivers/STM32F1xx_HAL_Driver/Src/stm32f1xx_hal_rcc.c ****       
 390              		.loc 1 291 0 is_stmt 0 discriminator 3
 391 0102 2368     		ldr	r3, [r4]
 392              	.LBB167:
 393              	.LBB168:
 394              		.loc 2 531 0 is_stmt 1 discriminator 3
 395 0104 4FF40036 		mov	r6, #131072
 396              	.LBE168:
 397              	.LBE167:
 291:Drivers/STM32F1xx_HAL_Driver/Src/stm32f1xx_hal_rcc.c ****       
 398              		.loc 1 291 0 discriminator 3
 399 0108 23F48033 		bic	r3, r3, #65536
 400 010c 2360     		str	r3, [r4]
 401 010e 2368     		ldr	r3, [r4]
 402 0110 23F48023 		bic	r3, r3, #262144
 403 0114 2360     		str	r3, [r4]
 312:Drivers/STM32F1xx_HAL_Driver/Src/stm32f1xx_hal_rcc.c ****         
 404              		.loc 1 312 0 discriminator 3
 405 0116 FFF7FEFF 		bl	HAL_GetTick
 406              	.LVL31:
 407 011a 0746     		mov	r7, r0
 408              	.LVL32:
 409              	.L15:
 410              	.LBB170:
 411              	.LBB169:
 412              		.loc 2 531 0
 413              		.syntax unified
 414              	@ 531 "Drivers/CMSIS/Include/cmsis_gcc.h" 1
 415 011c 96FAA6F3 		rbit r3, r6
 416              	@ 0 "" 2
 417              	.LVL33:
 418              		.thumb
 419              		.syntax unified
 420              	.LBE169:
 421              	.LBE170:
 315:Drivers/STM32F1xx_HAL_Driver/Src/stm32f1xx_hal_rcc.c ****         {
 422              		.loc 1 315 0
 423 0120 2268     		ldr	r2, [r4]
 424              	.LVL34:
 425              	.LBB171:
 426              	.LBB172:
 427              		.loc 2 531 0
 428              		.syntax unified
ARM GAS  /tmp/ccukyRaG.s 			page 30


 429              	@ 531 "Drivers/CMSIS/Include/cmsis_gcc.h" 1
 430 0122 96FAA6F3 		rbit r3, r6
 431              	@ 0 "" 2
 432              	.LVL35:
 433              		.thumb
 434              		.syntax unified
 435              	.LBE172:
 436              	.LBE171:
 315:Drivers/STM32F1xx_HAL_Driver/Src/stm32f1xx_hal_rcc.c ****         {
 437              		.loc 1 315 0
 438 0126 B3FA83F3 		clz	r3, r3
 439 012a 03F01F03 		and	r3, r3, #31
 440 012e 22FA03F3 		lsr	r3, r2, r3
 441 0132 DB07     		lsls	r3, r3, #31
 442 0134 7FF56AAF 		bpl	.L10
 317:Drivers/STM32F1xx_HAL_Driver/Src/stm32f1xx_hal_rcc.c ****           {
 443              		.loc 1 317 0
 444 0138 FFF7FEFF 		bl	HAL_GetTick
 445              	.LVL36:
 446 013c C01B     		subs	r0, r0, r7
 447 013e 6428     		cmp	r0, #100
 448 0140 ECD9     		bls	.L15
 449 0142 DBE7     		b	.L19
 450              	.LVL37:
 451              	.L14:
 291:Drivers/STM32F1xx_HAL_Driver/Src/stm32f1xx_hal_rcc.c ****       
 452              		.loc 1 291 0 discriminator 4
 453 0144 B3F5A02F 		cmp	r3, #327680
 454 0148 2368     		ldr	r3, [r4]
 455 014a 03D1     		bne	.L16
 291:Drivers/STM32F1xx_HAL_Driver/Src/stm32f1xx_hal_rcc.c ****       
 456              		.loc 1 291 0 is_stmt 0 discriminator 5
 457 014c 43F48023 		orr	r3, r3, #262144
 458 0150 2360     		str	r3, [r4]
 459 0152 B8E7     		b	.L88
 460              	.L16:
 291:Drivers/STM32F1xx_HAL_Driver/Src/stm32f1xx_hal_rcc.c ****       
 461              		.loc 1 291 0 discriminator 6
 462 0154 23F48033 		bic	r3, r3, #65536
 463 0158 2360     		str	r3, [r4]
 464 015a 2368     		ldr	r3, [r4]
 465 015c 23F48023 		bic	r3, r3, #262144
 466 0160 B4E7     		b	.L86
 467              	.LVL38:
 468              	.L6:
 333:Drivers/STM32F1xx_HAL_Driver/Src/stm32f1xx_hal_rcc.c ****        || ((__HAL_RCC_GET_SYSCLK_SOURCE() == RCC_SYSCLKSOURCE_STATUS_PLLCLK) && (__HAL_RCC_GET_PLL_
 469              		.loc 1 333 0 is_stmt 1
 470 0162 6D4C     		ldr	r4, .L90
 471 0164 6368     		ldr	r3, [r4, #4]
 472 0166 13F00C0F 		tst	r3, #12
 473 016a 07D0     		beq	.L22
 334:Drivers/STM32F1xx_HAL_Driver/Src/stm32f1xx_hal_rcc.c ****     {
 474              		.loc 1 334 0
 475 016c 6368     		ldr	r3, [r4, #4]
 476 016e 03F00C03 		and	r3, r3, #12
 477 0172 082B     		cmp	r3, #8
 478 0174 20D1     		bne	.L23
ARM GAS  /tmp/ccukyRaG.s 			page 31


 334:Drivers/STM32F1xx_HAL_Driver/Src/stm32f1xx_hal_rcc.c ****     {
 479              		.loc 1 334 0 is_stmt 0 discriminator 1
 480 0176 6368     		ldr	r3, [r4, #4]
 481 0178 DF03     		lsls	r7, r3, #15
 482 017a 1DD4     		bmi	.L23
 483              	.L22:
 484              	.LVL39:
 485              	.LBB173:
 486              	.LBB174:
 487              		.loc 2 531 0 is_stmt 1
 488 017c 0223     		movs	r3, #2
 489              		.syntax unified
 490              	@ 531 "Drivers/CMSIS/Include/cmsis_gcc.h" 1
 491 017e 93FAA3F2 		rbit r2, r3
 492              	@ 0 "" 2
 493              	.LVL40:
 494              		.thumb
 495              		.syntax unified
 496              	.LBE174:
 497              	.LBE173:
 337:Drivers/STM32F1xx_HAL_Driver/Src/stm32f1xx_hal_rcc.c ****       {
 498              		.loc 1 337 0
 499 0182 2268     		ldr	r2, [r4]
 500              	.LVL41:
 501              	.LBB175:
 502              	.LBB176:
 503              		.loc 2 531 0
 504              		.syntax unified
 505              	@ 531 "Drivers/CMSIS/Include/cmsis_gcc.h" 1
 506 0184 93FAA3F3 		rbit r3, r3
 507              	@ 0 "" 2
 508              	.LVL42:
 509              		.thumb
 510              		.syntax unified
 511              	.LBE176:
 512              	.LBE175:
 337:Drivers/STM32F1xx_HAL_Driver/Src/stm32f1xx_hal_rcc.c ****       {
 513              		.loc 1 337 0
 514 0188 B3FA83F3 		clz	r3, r3
 515 018c 03F01F03 		and	r3, r3, #31
 516 0190 22FA03F3 		lsr	r3, r2, r3
 517 0194 DE07     		lsls	r6, r3, #31
 518 0196 02D5     		bpl	.L85
 337:Drivers/STM32F1xx_HAL_Driver/Src/stm32f1xx_hal_rcc.c ****       {
 519              		.loc 1 337 0 is_stmt 0 discriminator 9
 520 0198 2B69     		ldr	r3, [r5, #16]
 521 019a 012B     		cmp	r3, #1
 522 019c 8BD1     		bne	.L25
 523              	.L85:
 369:Drivers/STM32F1xx_HAL_Driver/Src/stm32f1xx_hal_rcc.c ****       }
 524              		.loc 1 369 0 is_stmt 1
 525 019e 2168     		ldr	r1, [r4]
 526              	.LVL43:
 527              	.LBB177:
 528              	.LBB178:
 529              		.loc 2 531 0
 530 01a0 F823     		movs	r3, #248
ARM GAS  /tmp/ccukyRaG.s 			page 32


 531              		.syntax unified
 532              	@ 531 "Drivers/CMSIS/Include/cmsis_gcc.h" 1
 533 01a2 93FAA3F3 		rbit r3, r3
 534              	@ 0 "" 2
 535              	.LVL44:
 536              		.thumb
 537              		.syntax unified
 538              	.LBE178:
 539              	.LBE177:
 369:Drivers/STM32F1xx_HAL_Driver/Src/stm32f1xx_hal_rcc.c ****       }
 540              		.loc 1 369 0
 541 01a6 B3FA83F2 		clz	r2, r3
 542 01aa 6B69     		ldr	r3, [r5, #20]
 543 01ac 9340     		lsls	r3, r3, r2
 544 01ae 21F0F802 		bic	r2, r1, #248
 545 01b2 1343     		orrs	r3, r3, r2
 546 01b4 2360     		str	r3, [r4]
 547 01b6 2DE7     		b	.L21
 548              	.L23:
 351:Drivers/STM32F1xx_HAL_Driver/Src/stm32f1xx_hal_rcc.c ****       {
 549              		.loc 1 351 0
 550 01b8 2A69     		ldr	r2, [r5, #16]
 551 01ba 0123     		movs	r3, #1
 552 01bc 02B3     		cbz	r2, .L26
 553              	.LVL45:
 554              	.LBB179:
 555              	.LBB180:
 556              		.loc 2 531 0
 557              		.syntax unified
 558              	@ 531 "Drivers/CMSIS/Include/cmsis_gcc.h" 1
 559 01be 93FAA3F2 		rbit r2, r3
 560              	@ 0 "" 2
 561              	.LVL46:
 562              		.thumb
 563              		.syntax unified
 564              	.LBE180:
 565              	.LBE179:
 354:Drivers/STM32F1xx_HAL_Driver/Src/stm32f1xx_hal_rcc.c ****         
 566              		.loc 1 354 0
 567 01c2 B2FA82F2 		clz	r2, r2
 568 01c6 9200     		lsls	r2, r2, #2
 569 01c8 02F18442 		add	r2, r2, #1107296256
 570 01cc 02F58402 		add	r2, r2, #4325376
 571 01d0 1360     		str	r3, [r2]
 357:Drivers/STM32F1xx_HAL_Driver/Src/stm32f1xx_hal_rcc.c ****         
 572              		.loc 1 357 0
 573 01d2 FFF7FEFF 		bl	HAL_GetTick
 574              	.LVL47:
 575              	.LBB181:
 576              	.LBB182:
 577              		.loc 2 531 0
 578 01d6 0226     		movs	r6, #2
 579              	.LBE182:
 580              	.LBE181:
 357:Drivers/STM32F1xx_HAL_Driver/Src/stm32f1xx_hal_rcc.c ****         
 581              		.loc 1 357 0
 582 01d8 0746     		mov	r7, r0
ARM GAS  /tmp/ccukyRaG.s 			page 33


 583              	.LVL48:
 584              	.L27:
 585              	.LBB184:
 586              	.LBB183:
 587              		.loc 2 531 0
 588              		.syntax unified
 589              	@ 531 "Drivers/CMSIS/Include/cmsis_gcc.h" 1
 590 01da 96FAA6F3 		rbit r3, r6
 591              	@ 0 "" 2
 592              	.LVL49:
 593              		.thumb
 594              		.syntax unified
 595              	.LBE183:
 596              	.LBE184:
 360:Drivers/STM32F1xx_HAL_Driver/Src/stm32f1xx_hal_rcc.c ****         {
 597              		.loc 1 360 0
 598 01de 2268     		ldr	r2, [r4]
 599              	.LVL50:
 600              	.LBB185:
 601              	.LBB186:
 602              		.loc 2 531 0
 603              		.syntax unified
 604              	@ 531 "Drivers/CMSIS/Include/cmsis_gcc.h" 1
 605 01e0 96FAA6F3 		rbit r3, r6
 606              	@ 0 "" 2
 607              	.LVL51:
 608              		.thumb
 609              		.syntax unified
 610              	.LBE186:
 611              	.LBE185:
 360:Drivers/STM32F1xx_HAL_Driver/Src/stm32f1xx_hal_rcc.c ****         {
 612              		.loc 1 360 0
 613 01e4 B3FA83F3 		clz	r3, r3
 614 01e8 03F01F03 		and	r3, r3, #31
 615 01ec 22FA03F3 		lsr	r3, r2, r3
 616 01f0 D807     		lsls	r0, r3, #31
 617 01f2 D4D4     		bmi	.L85
 362:Drivers/STM32F1xx_HAL_Driver/Src/stm32f1xx_hal_rcc.c ****           {
 618              		.loc 1 362 0
 619 01f4 FFF7FEFF 		bl	HAL_GetTick
 620              	.LVL52:
 621 01f8 C01B     		subs	r0, r0, r7
 622 01fa 0228     		cmp	r0, #2
 623 01fc EDD9     		bls	.L27
 624 01fe 7DE7     		b	.L19
 625              	.LVL53:
 626              	.L26:
 627              	.LBB187:
 628              	.LBB188:
 629              		.loc 2 531 0
 630              		.syntax unified
 631              	@ 531 "Drivers/CMSIS/Include/cmsis_gcc.h" 1
 632 0200 93FAA3F3 		rbit r3, r3
 633              	@ 0 "" 2
 634              	.LVL54:
 635              		.thumb
 636              		.syntax unified
ARM GAS  /tmp/ccukyRaG.s 			page 34


 637              	.LBE188:
 638              	.LBE187:
 374:Drivers/STM32F1xx_HAL_Driver/Src/stm32f1xx_hal_rcc.c ****         
 639              		.loc 1 374 0
 640 0204 B3FA83F3 		clz	r3, r3
 641 0208 9B00     		lsls	r3, r3, #2
 642 020a 03F18443 		add	r3, r3, #1107296256
 643 020e 03F58403 		add	r3, r3, #4325376
 644 0212 1A60     		str	r2, [r3]
 377:Drivers/STM32F1xx_HAL_Driver/Src/stm32f1xx_hal_rcc.c ****         
 645              		.loc 1 377 0
 646 0214 FFF7FEFF 		bl	HAL_GetTick
 647              	.LVL55:
 648              	.LBB189:
 649              	.LBB190:
 650              		.loc 2 531 0
 651 0218 0226     		movs	r6, #2
 652              	.LBE190:
 653              	.LBE189:
 377:Drivers/STM32F1xx_HAL_Driver/Src/stm32f1xx_hal_rcc.c ****         
 654              		.loc 1 377 0
 655 021a 0746     		mov	r7, r0
 656              	.LVL56:
 657              	.L29:
 658              	.LBB192:
 659              	.LBB191:
 660              		.loc 2 531 0
 661              		.syntax unified
 662              	@ 531 "Drivers/CMSIS/Include/cmsis_gcc.h" 1
 663 021c 96FAA6F3 		rbit r3, r6
 664              	@ 0 "" 2
 665              	.LVL57:
 666              		.thumb
 667              		.syntax unified
 668              	.LBE191:
 669              	.LBE192:
 380:Drivers/STM32F1xx_HAL_Driver/Src/stm32f1xx_hal_rcc.c ****         {
 670              		.loc 1 380 0
 671 0220 2268     		ldr	r2, [r4]
 672              	.LVL58:
 673              	.LBB193:
 674              	.LBB194:
 675              		.loc 2 531 0
 676              		.syntax unified
 677              	@ 531 "Drivers/CMSIS/Include/cmsis_gcc.h" 1
 678 0222 96FAA6F3 		rbit r3, r6
 679              	@ 0 "" 2
 680              	.LVL59:
 681              		.thumb
 682              		.syntax unified
 683              	.LBE194:
 684              	.LBE193:
 380:Drivers/STM32F1xx_HAL_Driver/Src/stm32f1xx_hal_rcc.c ****         {
 685              		.loc 1 380 0
 686 0226 B3FA83F3 		clz	r3, r3
 687 022a 03F01F03 		and	r3, r3, #31
 688 022e 22FA03F3 		lsr	r3, r2, r3
ARM GAS  /tmp/ccukyRaG.s 			page 35


 689 0232 D907     		lsls	r1, r3, #31
 690 0234 7FF5EEAE 		bpl	.L21
 382:Drivers/STM32F1xx_HAL_Driver/Src/stm32f1xx_hal_rcc.c ****           {
 691              		.loc 1 382 0
 692 0238 FFF7FEFF 		bl	HAL_GetTick
 693              	.LVL60:
 694 023c C01B     		subs	r0, r0, r7
 695 023e 0228     		cmp	r0, #2
 696 0240 ECD9     		bls	.L29
 697 0242 5BE7     		b	.L19
 698              	.L35:
 408:Drivers/STM32F1xx_HAL_Driver/Src/stm32f1xx_hal_rcc.c ****         {
 699              		.loc 1 408 0
 700 0244 FFF7FEFF 		bl	HAL_GetTick
 701              	.LVL61:
 702 0248 C01B     		subs	r0, r0, r7
 703 024a 0228     		cmp	r0, #2
 704 024c 7FF6F6AE 		bls	.L34
 705 0250 54E7     		b	.L19
 706              	.LVL62:
 707              	.L33:
 708              	.LBB195:
 709              	.LBB196:
 710              		.loc 2 531 0
 711              		.syntax unified
 712              	@ 531 "Drivers/CMSIS/Include/cmsis_gcc.h" 1
 713 0252 93FAA3F3 		rbit r3, r3
 714              	@ 0 "" 2
 715              	.LVL63:
 716              		.thumb
 717              		.syntax unified
 718              	.LBE196:
 719              	.LBE195:
 420:Drivers/STM32F1xx_HAL_Driver/Src/stm32f1xx_hal_rcc.c ****       
 720              		.loc 1 420 0
 721 0256 B3FA83F3 		clz	r3, r3
 722 025a 41F82320 		str	r2, [r1, r3, lsl #2]
 423:Drivers/STM32F1xx_HAL_Driver/Src/stm32f1xx_hal_rcc.c ****       
 723              		.loc 1 423 0
 724 025e FFF7FEFF 		bl	HAL_GetTick
 725              	.LVL64:
 726              	.LBB197:
 727              	.LBB198:
 728              		.loc 2 531 0
 729 0262 0226     		movs	r6, #2
 730              	.LBE198:
 731              	.LBE197:
 423:Drivers/STM32F1xx_HAL_Driver/Src/stm32f1xx_hal_rcc.c ****       
 732              		.loc 1 423 0
 733 0264 0746     		mov	r7, r0
 734              	.LVL65:
 735              	.L36:
 736              	.LBB200:
 737              	.LBB199:
 738              		.loc 2 531 0
 739              		.syntax unified
 740              	@ 531 "Drivers/CMSIS/Include/cmsis_gcc.h" 1
ARM GAS  /tmp/ccukyRaG.s 			page 36


 741 0266 96FAA6F3 		rbit r3, r6
 742              	@ 0 "" 2
 743              	.LVL66:
 744              		.thumb
 745              		.syntax unified
 746              	.LBE199:
 747              	.LBE200:
 748              	.LBB201:
 749              	.LBB202:
 750              		.syntax unified
 751              	@ 531 "Drivers/CMSIS/Include/cmsis_gcc.h" 1
 752 026a 96FAA6F3 		rbit r3, r6
 753              	@ 0 "" 2
 754              	.LVL67:
 755              		.thumb
 756              		.syntax unified
 757              	.LBE202:
 758              	.LBE201:
 426:Drivers/STM32F1xx_HAL_Driver/Src/stm32f1xx_hal_rcc.c ****       {
 759              		.loc 1 426 0
 760 026e 626A     		ldr	r2, [r4, #36]
 761              	.LVL68:
 762              	.LBB203:
 763              	.LBB204:
 764              		.loc 2 531 0
 765              		.syntax unified
 766              	@ 531 "Drivers/CMSIS/Include/cmsis_gcc.h" 1
 767 0270 96FAA6F3 		rbit r3, r6
 768              	@ 0 "" 2
 769              	.LVL69:
 770              		.thumb
 771              		.syntax unified
 772              	.LBE204:
 773              	.LBE203:
 426:Drivers/STM32F1xx_HAL_Driver/Src/stm32f1xx_hal_rcc.c ****       {
 774              		.loc 1 426 0
 775 0274 B3FA83F3 		clz	r3, r3
 776 0278 03F01F03 		and	r3, r3, #31
 777 027c 22FA03F3 		lsr	r3, r2, r3
 778 0280 D807     		lsls	r0, r3, #31
 779 0282 7FF5EEAE 		bpl	.L32
 428:Drivers/STM32F1xx_HAL_Driver/Src/stm32f1xx_hal_rcc.c ****         {
 780              		.loc 1 428 0
 781 0286 FFF7FEFF 		bl	HAL_GetTick
 782              	.LVL70:
 783 028a C01B     		subs	r0, r0, r7
 784 028c 0228     		cmp	r0, #2
 785 028e EAD9     		bls	.L36
 786 0290 34E7     		b	.L19
 787              	.LVL71:
 788              	.L39:
 789              	.LBB205:
 442:Drivers/STM32F1xx_HAL_Driver/Src/stm32f1xx_hal_rcc.c ****     
 790              		.loc 1 442 0
 791 0292 214C     		ldr	r4, .L90
 792              	.LBE205:
 445:Drivers/STM32F1xx_HAL_Driver/Src/stm32f1xx_hal_rcc.c ****       
ARM GAS  /tmp/ccukyRaG.s 			page 37


 793              		.loc 1 445 0
 794 0294 224E     		ldr	r6, .L90+8
 795              	.LBB206:
 442:Drivers/STM32F1xx_HAL_Driver/Src/stm32f1xx_hal_rcc.c ****     
 796              		.loc 1 442 0
 797 0296 E369     		ldr	r3, [r4, #28]
 798 0298 43F08053 		orr	r3, r3, #268435456
 799 029c E361     		str	r3, [r4, #28]
 800 029e E369     		ldr	r3, [r4, #28]
 801 02a0 03F08053 		and	r3, r3, #268435456
 802 02a4 0193     		str	r3, [sp, #4]
 803 02a6 019B     		ldr	r3, [sp, #4]
 804              	.LBE206:
 445:Drivers/STM32F1xx_HAL_Driver/Src/stm32f1xx_hal_rcc.c ****       
 805              		.loc 1 445 0
 806 02a8 3368     		ldr	r3, [r6]
 807 02aa 43F48073 		orr	r3, r3, #256
 808 02ae 3360     		str	r3, [r6]
 448:Drivers/STM32F1xx_HAL_Driver/Src/stm32f1xx_hal_rcc.c **** 
 809              		.loc 1 448 0
 810 02b0 FFF7FEFF 		bl	HAL_GetTick
 811              	.LVL72:
 812 02b4 0746     		mov	r7, r0
 813              	.LVL73:
 814              	.L42:
 450:Drivers/STM32F1xx_HAL_Driver/Src/stm32f1xx_hal_rcc.c ****       {
 815              		.loc 1 450 0
 816 02b6 3368     		ldr	r3, [r6]
 817 02b8 DA05     		lsls	r2, r3, #23
 818 02ba 26D5     		bpl	.L43
 459:Drivers/STM32F1xx_HAL_Driver/Src/stm32f1xx_hal_rcc.c ****     /* Check the LSE State */
 819              		.loc 1 459 0
 820 02bc EB68     		ldr	r3, [r5, #12]
 821 02be 012B     		cmp	r3, #1
 822 02c0 30D1     		bne	.L44
 823              	.L89:
 459:Drivers/STM32F1xx_HAL_Driver/Src/stm32f1xx_hal_rcc.c ****     /* Check the LSE State */
 824              		.loc 1 459 0 is_stmt 0 discriminator 5
 825 02c2 236A     		ldr	r3, [r4, #32]
 826 02c4 43F00103 		orr	r3, r3, #1
 827              	.L87:
 459:Drivers/STM32F1xx_HAL_Driver/Src/stm32f1xx_hal_rcc.c ****     /* Check the LSE State */
 828              		.loc 1 459 0 discriminator 6
 829 02c8 2362     		str	r3, [r4, #32]
 464:Drivers/STM32F1xx_HAL_Driver/Src/stm32f1xx_hal_rcc.c ****       
 830              		.loc 1 464 0 is_stmt 1 discriminator 6
 831 02ca FFF7FEFF 		bl	HAL_GetTick
 832              	.LVL74:
 833              	.LBB207:
 834              	.LBB208:
 835              		.loc 2 531 0 discriminator 6
 836 02ce 0226     		movs	r6, #2
 837              	.LBE208:
 838              	.LBE207:
 464:Drivers/STM32F1xx_HAL_Driver/Src/stm32f1xx_hal_rcc.c ****       
 839              		.loc 1 464 0 discriminator 6
 840 02d0 8146     		mov	r9, r0
ARM GAS  /tmp/ccukyRaG.s 			page 38


 841              	.LVL75:
 842 02d2 B046     		mov	r8, r6
 469:Drivers/STM32F1xx_HAL_Driver/Src/stm32f1xx_hal_rcc.c ****         {
 843              		.loc 1 469 0 discriminator 6
 844 02d4 41F28837 		movw	r7, #5000
 845              	.LVL76:
 846              	.L64:
 847              	.LBB210:
 848              	.LBB209:
 849              		.loc 2 531 0
 850              		.syntax unified
 851              	@ 531 "Drivers/CMSIS/Include/cmsis_gcc.h" 1
 852 02d8 96FAA6F3 		rbit r3, r6
 853              	@ 0 "" 2
 854              	.LVL77:
 855              		.thumb
 856              		.syntax unified
 857              	.LBE209:
 858              	.LBE210:
 859              	.LBB211:
 860              	.LBB212:
 861              		.syntax unified
 862              	@ 531 "Drivers/CMSIS/Include/cmsis_gcc.h" 1
 863 02dc 96FAA6F3 		rbit r3, r6
 864              	@ 0 "" 2
 865              	.LVL78:
 866              		.thumb
 867              		.syntax unified
 868              	.LBE212:
 869              	.LBE211:
 467:Drivers/STM32F1xx_HAL_Driver/Src/stm32f1xx_hal_rcc.c ****       {
 870              		.loc 1 467 0
 871 02e0 002B     		cmp	r3, #0
 872 02e2 55D0     		beq	.L49
 467:Drivers/STM32F1xx_HAL_Driver/Src/stm32f1xx_hal_rcc.c ****       {
 873              		.loc 1 467 0 is_stmt 0 discriminator 4
 874 02e4 226A     		ldr	r2, [r4, #32]
 875              	.L50:
 876              	.LVL79:
 877              	.LBB213:
 878              	.LBB214:
 879              		.loc 2 531 0 is_stmt 1 discriminator 7
 880              		.syntax unified
 881              	@ 531 "Drivers/CMSIS/Include/cmsis_gcc.h" 1
 882 02e6 98FAA8F3 		rbit r3, r8
 883              	@ 0 "" 2
 884              	.LVL80:
 885              		.thumb
 886              		.syntax unified
 887              	.LBE214:
 888              	.LBE213:
 467:Drivers/STM32F1xx_HAL_Driver/Src/stm32f1xx_hal_rcc.c ****       {
 889              		.loc 1 467 0 discriminator 7
 890 02ea B3FA83F3 		clz	r3, r3
 891 02ee 03F01F03 		and	r3, r3, #31
 892 02f2 22FA03F3 		lsr	r3, r2, r3
 893 02f6 DB07     		lsls	r3, r3, #31
ARM GAS  /tmp/ccukyRaG.s 			page 39


 894 02f8 3FF5B7AE 		bmi	.L52
 469:Drivers/STM32F1xx_HAL_Driver/Src/stm32f1xx_hal_rcc.c ****         {
 895              		.loc 1 469 0
 896 02fc FFF7FEFF 		bl	HAL_GetTick
 897              	.LVL81:
 898 0300 A0EB0900 		sub	r0, r0, r9
 899 0304 B842     		cmp	r0, r7
 900 0306 E7D9     		bls	.L64
 901 0308 F8E6     		b	.L19
 902              	.LVL82:
 903              	.L43:
 452:Drivers/STM32F1xx_HAL_Driver/Src/stm32f1xx_hal_rcc.c ****         {
 904              		.loc 1 452 0
 905 030a FFF7FEFF 		bl	HAL_GetTick
 906              	.LVL83:
 907 030e C01B     		subs	r0, r0, r7
 908 0310 6428     		cmp	r0, #100
 909 0312 D0D9     		bls	.L42
 910 0314 F2E6     		b	.L19
 911              	.L91:
 912 0316 00BF     		.align	2
 913              	.L90:
 914 0318 00100240 		.word	1073876992
 915 031c 80044242 		.word	1111622784
 916 0320 00700040 		.word	1073770496
 917              	.L44:
 459:Drivers/STM32F1xx_HAL_Driver/Src/stm32f1xx_hal_rcc.c ****     /* Check the LSE State */
 918              		.loc 1 459 0 discriminator 2
 919 0324 33BB     		cbnz	r3, .L46
 459:Drivers/STM32F1xx_HAL_Driver/Src/stm32f1xx_hal_rcc.c ****     /* Check the LSE State */
 920              		.loc 1 459 0 is_stmt 0 discriminator 3
 921 0326 236A     		ldr	r3, [r4, #32]
 922              	.LBB215:
 923              	.LBB216:
 924              		.loc 2 531 0 is_stmt 1 discriminator 3
 925 0328 0226     		movs	r6, #2
 926              	.LBE216:
 927              	.LBE215:
 459:Drivers/STM32F1xx_HAL_Driver/Src/stm32f1xx_hal_rcc.c ****     /* Check the LSE State */
 928              		.loc 1 459 0 discriminator 3
 929 032a 23F00103 		bic	r3, r3, #1
 930 032e 2362     		str	r3, [r4, #32]
 931 0330 236A     		ldr	r3, [r4, #32]
 932 0332 3746     		mov	r7, r6
 933              	.LVL84:
 934 0334 23F00403 		bic	r3, r3, #4
 935 0338 2362     		str	r3, [r4, #32]
 478:Drivers/STM32F1xx_HAL_Driver/Src/stm32f1xx_hal_rcc.c ****       
 936              		.loc 1 478 0 discriminator 3
 937 033a FFF7FEFF 		bl	HAL_GetTick
 938              	.LVL85:
 483:Drivers/STM32F1xx_HAL_Driver/Src/stm32f1xx_hal_rcc.c ****         {
 939              		.loc 1 483 0 discriminator 3
 940 033e 41F28839 		movw	r9, #5000
 478:Drivers/STM32F1xx_HAL_Driver/Src/stm32f1xx_hal_rcc.c ****       
 941              		.loc 1 478 0 discriminator 3
 942 0342 8046     		mov	r8, r0
ARM GAS  /tmp/ccukyRaG.s 			page 40


 943              	.LVL86:
 944              	.L47:
 945              	.LBB218:
 946              	.LBB217:
 947              		.loc 2 531 0
 948              		.syntax unified
 949              	@ 531 "Drivers/CMSIS/Include/cmsis_gcc.h" 1
 950 0344 96FAA6F3 		rbit r3, r6
 951              	@ 0 "" 2
 952              	.LVL87:
 953              		.thumb
 954              		.syntax unified
 955              	.LBE217:
 956              	.LBE218:
 957              	.LBB219:
 958              	.LBB220:
 959              		.syntax unified
 960              	@ 531 "Drivers/CMSIS/Include/cmsis_gcc.h" 1
 961 0348 96FAA6F3 		rbit r3, r6
 962              	@ 0 "" 2
 963              	.LVL88:
 964              		.thumb
 965              		.syntax unified
 966              	.LBE220:
 967              	.LBE219:
 481:Drivers/STM32F1xx_HAL_Driver/Src/stm32f1xx_hal_rcc.c ****       {
 968              		.loc 1 481 0
 969 034c 13B3     		cbz	r3, .L53
 481:Drivers/STM32F1xx_HAL_Driver/Src/stm32f1xx_hal_rcc.c ****       {
 970              		.loc 1 481 0 is_stmt 0 discriminator 4
 971 034e 226A     		ldr	r2, [r4, #32]
 972              	.L54:
 973              	.LVL89:
 974              	.LBB221:
 975              	.LBB222:
 976              		.loc 2 531 0 is_stmt 1 discriminator 7
 977              		.syntax unified
 978              	@ 531 "Drivers/CMSIS/Include/cmsis_gcc.h" 1
 979 0350 97FAA7F3 		rbit r3, r7
 980              	@ 0 "" 2
 981              	.LVL90:
 982              		.thumb
 983              		.syntax unified
 984              	.LBE222:
 985              	.LBE221:
 481:Drivers/STM32F1xx_HAL_Driver/Src/stm32f1xx_hal_rcc.c ****       {
 986              		.loc 1 481 0 discriminator 7
 987 0354 B3FA83F3 		clz	r3, r3
 988 0358 03F01F03 		and	r3, r3, #31
 989 035c 22FA03F3 		lsr	r3, r2, r3
 990 0360 D807     		lsls	r0, r3, #31
 991 0362 7FF582AE 		bpl	.L52
 483:Drivers/STM32F1xx_HAL_Driver/Src/stm32f1xx_hal_rcc.c ****         {
 992              		.loc 1 483 0
 993 0366 FFF7FEFF 		bl	HAL_GetTick
 994              	.LVL91:
 995 036a A0EB0800 		sub	r0, r0, r8
ARM GAS  /tmp/ccukyRaG.s 			page 41


 996 036e 4845     		cmp	r0, r9
 997 0370 E8D9     		bls	.L47
 998 0372 C3E6     		b	.L19
 999              	.LVL92:
 1000              	.L46:
 459:Drivers/STM32F1xx_HAL_Driver/Src/stm32f1xx_hal_rcc.c ****     /* Check the LSE State */
 1001              		.loc 1 459 0 discriminator 4
 1002 0374 052B     		cmp	r3, #5
 1003 0376 236A     		ldr	r3, [r4, #32]
 1004 0378 03D1     		bne	.L48
 459:Drivers/STM32F1xx_HAL_Driver/Src/stm32f1xx_hal_rcc.c ****     /* Check the LSE State */
 1005              		.loc 1 459 0 is_stmt 0 discriminator 5
 1006 037a 43F00403 		orr	r3, r3, #4
 1007 037e 2362     		str	r3, [r4, #32]
 1008 0380 9FE7     		b	.L89
 1009              	.L48:
 459:Drivers/STM32F1xx_HAL_Driver/Src/stm32f1xx_hal_rcc.c ****     /* Check the LSE State */
 1010              		.loc 1 459 0 discriminator 6
 1011 0382 23F00103 		bic	r3, r3, #1
 1012 0386 2362     		str	r3, [r4, #32]
 1013 0388 236A     		ldr	r3, [r4, #32]
 1014 038a 23F00403 		bic	r3, r3, #4
 1015 038e 9BE7     		b	.L87
 1016              	.LVL93:
 1017              	.L49:
 467:Drivers/STM32F1xx_HAL_Driver/Src/stm32f1xx_hal_rcc.c ****       {
 1018              		.loc 1 467 0 is_stmt 1 discriminator 5
 1019 0390 626A     		ldr	r2, [r4, #36]
 1020 0392 A8E7     		b	.L50
 1021              	.LVL94:
 1022              	.L53:
 481:Drivers/STM32F1xx_HAL_Driver/Src/stm32f1xx_hal_rcc.c ****       {
 1023              		.loc 1 481 0 discriminator 5
 1024 0394 626A     		ldr	r2, [r4, #36]
 1025 0396 DBE7     		b	.L54
 1026              	.LVL95:
 1027              	.L40:
 587:Drivers/STM32F1xx_HAL_Driver/Src/stm32f1xx_hal_rcc.c ****     { 
 1028              		.loc 1 587 0
 1029 0398 444C     		ldr	r4, .L92
 1030 039a 6368     		ldr	r3, [r4, #4]
 1031 039c 03F00C03 		and	r3, r3, #12
 1032 03a0 082B     		cmp	r3, #8
 1033 03a2 3FF488AE 		beq	.L25
 589:Drivers/STM32F1xx_HAL_Driver/Src/stm32f1xx_hal_rcc.c ****       {
 1034              		.loc 1 589 0
 1035 03a6 022A     		cmp	r2, #2
 1036 03a8 4FF08073 		mov	r3, #16777216
 1037 03ac 59D1     		bne	.L56
 1038              	.LVL96:
 1039              	.LBB223:
 1040              	.LBB224:
 1041              		.loc 2 531 0
 1042              		.syntax unified
 1043              	@ 531 "Drivers/CMSIS/Include/cmsis_gcc.h" 1
 1044 03ae 93FAA3F3 		rbit r3, r3
 1045              	@ 0 "" 2
ARM GAS  /tmp/ccukyRaG.s 			page 42


 1046              	.LVL97:
 1047              		.thumb
 1048              		.syntax unified
 1049              	.LBE224:
 1050              	.LBE223:
 596:Drivers/STM32F1xx_HAL_Driver/Src/stm32f1xx_hal_rcc.c ****         
 1051              		.loc 1 596 0
 1052 03b2 B3FA83F3 		clz	r3, r3
 1053 03b6 0022     		movs	r2, #0
 1054 03b8 9B00     		lsls	r3, r3, #2
 1055 03ba 03F18443 		add	r3, r3, #1107296256
 1056 03be 03F58403 		add	r3, r3, #4325376
 1057 03c2 1A60     		str	r2, [r3]
 599:Drivers/STM32F1xx_HAL_Driver/Src/stm32f1xx_hal_rcc.c ****         
 1058              		.loc 1 599 0
 1059 03c4 FFF7FEFF 		bl	HAL_GetTick
 1060              	.LVL98:
 1061              	.LBB225:
 1062              	.LBB226:
 1063              		.loc 2 531 0
 1064 03c8 4FF00076 		mov	r6, #33554432
 1065              	.LBE226:
 1066              	.LBE225:
 599:Drivers/STM32F1xx_HAL_Driver/Src/stm32f1xx_hal_rcc.c ****         
 1067              		.loc 1 599 0
 1068 03cc 0746     		mov	r7, r0
 1069              	.LVL99:
 1070              	.L57:
 1071              	.LBB228:
 1072              	.LBB227:
 1073              		.loc 2 531 0
 1074              		.syntax unified
 1075              	@ 531 "Drivers/CMSIS/Include/cmsis_gcc.h" 1
 1076 03ce 96FAA6F3 		rbit r3, r6
 1077              	@ 0 "" 2
 1078              	.LVL100:
 1079              		.thumb
 1080              		.syntax unified
 1081              	.LBE227:
 1082              	.LBE228:
 602:Drivers/STM32F1xx_HAL_Driver/Src/stm32f1xx_hal_rcc.c ****         {
 1083              		.loc 1 602 0
 1084 03d2 2268     		ldr	r2, [r4]
 1085              	.LVL101:
 1086              	.LBB229:
 1087              	.LBB230:
 1088              		.loc 2 531 0
 1089              		.syntax unified
 1090              	@ 531 "Drivers/CMSIS/Include/cmsis_gcc.h" 1
 1091 03d4 96FAA6F3 		rbit r3, r6
 1092              	@ 0 "" 2
 1093              	.LVL102:
 1094              		.thumb
 1095              		.syntax unified
 1096              	.LBE230:
 1097              	.LBE229:
 602:Drivers/STM32F1xx_HAL_Driver/Src/stm32f1xx_hal_rcc.c ****         {
ARM GAS  /tmp/ccukyRaG.s 			page 43


 1098              		.loc 1 602 0
 1099 03d8 B3FA83F3 		clz	r3, r3
 1100 03dc 03F01F03 		and	r3, r3, #31
 1101 03e0 22FA03F3 		lsr	r3, r2, r3
 1102 03e4 D907     		lsls	r1, r3, #31
 1103 03e6 36D4     		bmi	.L58
 612:Drivers/STM32F1xx_HAL_Driver/Src/stm32f1xx_hal_rcc.c ****         {
 1104              		.loc 1 612 0
 1105 03e8 2B6A     		ldr	r3, [r5, #32]
 1106 03ea B3F5803F 		cmp	r3, #65536
 1107 03ee 05D1     		bne	.L59
 624:Drivers/STM32F1xx_HAL_Driver/Src/stm32f1xx_hal_rcc.c ****         }
 1108              		.loc 1 624 0
 1109 03f0 6268     		ldr	r2, [r4, #4]
 1110 03f2 A968     		ldr	r1, [r5, #8]
 1111 03f4 22F40032 		bic	r2, r2, #131072
 1112 03f8 0A43     		orrs	r2, r2, r1
 1113 03fa 6260     		str	r2, [r4, #4]
 1114              	.L59:
 628:Drivers/STM32F1xx_HAL_Driver/Src/stm32f1xx_hal_rcc.c ****                              RCC_OscInitStruct->PLL.PLLMUL);
 1115              		.loc 1 628 0
 1116 03fc 6268     		ldr	r2, [r4, #4]
 1117 03fe 696A     		ldr	r1, [r5, #36]
 1118 0400 22F47412 		bic	r2, r2, #3997696
 1119 0404 0B43     		orrs	r3, r3, r1
 1120 0406 1343     		orrs	r3, r3, r2
 1121 0408 6360     		str	r3, [r4, #4]
 1122              	.LVL103:
 1123              	.LBB231:
 1124              	.LBB232:
 1125              		.loc 2 531 0
 1126 040a 4FF08073 		mov	r3, #16777216
 1127              		.syntax unified
 1128              	@ 531 "Drivers/CMSIS/Include/cmsis_gcc.h" 1
 1129 040e 93FAA3F3 		rbit r3, r3
 1130              	@ 0 "" 2
 1131              	.LVL104:
 1132              		.thumb
 1133              		.syntax unified
 1134              	.LBE232:
 1135              	.LBE231:
 631:Drivers/STM32F1xx_HAL_Driver/Src/stm32f1xx_hal_rcc.c ****         
 1136              		.loc 1 631 0
 1137 0412 B3FA83F3 		clz	r3, r3
 1138 0416 0122     		movs	r2, #1
 1139 0418 9B00     		lsls	r3, r3, #2
 1140 041a 03F18443 		add	r3, r3, #1107296256
 1141 041e 03F58403 		add	r3, r3, #4325376
 1142 0422 1A60     		str	r2, [r3]
 634:Drivers/STM32F1xx_HAL_Driver/Src/stm32f1xx_hal_rcc.c ****         
 1143              		.loc 1 634 0
 1144 0424 FFF7FEFF 		bl	HAL_GetTick
 1145              	.LVL105:
 1146              	.LBB233:
 1147              	.LBB234:
 1148              		.loc 2 531 0
 1149 0428 4FF00075 		mov	r5, #33554432
ARM GAS  /tmp/ccukyRaG.s 			page 44


 1150              	.LVL106:
 1151              	.LBE234:
 1152              	.LBE233:
 634:Drivers/STM32F1xx_HAL_Driver/Src/stm32f1xx_hal_rcc.c ****         
 1153              		.loc 1 634 0
 1154 042c 0646     		mov	r6, r0
 1155              	.LVL107:
 1156              	.L60:
 1157              	.LBB236:
 1158              	.LBB235:
 1159              		.loc 2 531 0
 1160              		.syntax unified
 1161              	@ 531 "Drivers/CMSIS/Include/cmsis_gcc.h" 1
 1162 042e 95FAA5F3 		rbit r3, r5
 1163              	@ 0 "" 2
 1164              	.LVL108:
 1165              		.thumb
 1166              		.syntax unified
 1167              	.LBE235:
 1168              	.LBE236:
 637:Drivers/STM32F1xx_HAL_Driver/Src/stm32f1xx_hal_rcc.c ****         {
 1169              		.loc 1 637 0
 1170 0432 2268     		ldr	r2, [r4]
 1171              	.LVL109:
 1172              	.LBB237:
 1173              	.LBB238:
 1174              		.loc 2 531 0
 1175              		.syntax unified
 1176              	@ 531 "Drivers/CMSIS/Include/cmsis_gcc.h" 1
 1177 0434 95FAA5F3 		rbit r3, r5
 1178              	@ 0 "" 2
 1179              	.LVL110:
 1180              		.thumb
 1181              		.syntax unified
 1182              	.LBE238:
 1183              	.LBE237:
 637:Drivers/STM32F1xx_HAL_Driver/Src/stm32f1xx_hal_rcc.c ****         {
 1184              		.loc 1 637 0
 1185 0438 B3FA83F3 		clz	r3, r3
 1186 043c 03F01F03 		and	r3, r3, #31
 1187 0440 22FA03F3 		lsr	r3, r2, r3
 1188 0444 DA07     		lsls	r2, r3, #31
 1189 0446 3FF514AE 		bmi	.L41
 639:Drivers/STM32F1xx_HAL_Driver/Src/stm32f1xx_hal_rcc.c ****           {
 1190              		.loc 1 639 0
 1191 044a FFF7FEFF 		bl	HAL_GetTick
 1192              	.LVL111:
 1193 044e 801B     		subs	r0, r0, r6
 1194 0450 0228     		cmp	r0, #2
 1195 0452 ECD9     		bls	.L60
 1196 0454 52E6     		b	.L19
 1197              	.LVL112:
 1198              	.L58:
 604:Drivers/STM32F1xx_HAL_Driver/Src/stm32f1xx_hal_rcc.c ****           {
 1199              		.loc 1 604 0
 1200 0456 FFF7FEFF 		bl	HAL_GetTick
 1201              	.LVL113:
ARM GAS  /tmp/ccukyRaG.s 			page 45


 1202 045a C01B     		subs	r0, r0, r7
 1203 045c 0228     		cmp	r0, #2
 1204 045e B6D9     		bls	.L57
 1205 0460 4CE6     		b	.L19
 1206              	.LVL114:
 1207              	.L56:
 1208              	.LBB239:
 1209              	.LBB240:
 1210              		.loc 2 531 0
 1211              		.syntax unified
 1212              	@ 531 "Drivers/CMSIS/Include/cmsis_gcc.h" 1
 1213 0462 93FAA3F3 		rbit r3, r3
 1214              	@ 0 "" 2
 1215              	.LVL115:
 1216              		.thumb
 1217              		.syntax unified
 1218              	.LBE240:
 1219              	.LBE239:
 648:Drivers/STM32F1xx_HAL_Driver/Src/stm32f1xx_hal_rcc.c ****  
 1220              		.loc 1 648 0
 1221 0466 B3FA83F3 		clz	r3, r3
 1222 046a 0022     		movs	r2, #0
 1223 046c 9B00     		lsls	r3, r3, #2
 1224 046e 03F18443 		add	r3, r3, #1107296256
 1225 0472 03F58403 		add	r3, r3, #4325376
 1226 0476 1A60     		str	r2, [r3]
 651:Drivers/STM32F1xx_HAL_Driver/Src/stm32f1xx_hal_rcc.c ****         
 1227              		.loc 1 651 0
 1228 0478 FFF7FEFF 		bl	HAL_GetTick
 1229              	.LVL116:
 1230              	.LBB241:
 1231              	.LBB242:
 1232              		.loc 2 531 0
 1233 047c 4FF00075 		mov	r5, #33554432
 1234              	.LVL117:
 1235              	.LBE242:
 1236              	.LBE241:
 651:Drivers/STM32F1xx_HAL_Driver/Src/stm32f1xx_hal_rcc.c ****         
 1237              		.loc 1 651 0
 1238 0480 0646     		mov	r6, r0
 1239              	.LVL118:
 1240              	.L62:
 1241              	.LBB244:
 1242              	.LBB243:
 1243              		.loc 2 531 0
 1244              		.syntax unified
 1245              	@ 531 "Drivers/CMSIS/Include/cmsis_gcc.h" 1
 1246 0482 95FAA5F3 		rbit r3, r5
 1247              	@ 0 "" 2
 1248              	.LVL119:
 1249              		.thumb
 1250              		.syntax unified
 1251              	.LBE243:
 1252              	.LBE244:
 654:Drivers/STM32F1xx_HAL_Driver/Src/stm32f1xx_hal_rcc.c ****         {
 1253              		.loc 1 654 0
 1254 0486 2268     		ldr	r2, [r4]
ARM GAS  /tmp/ccukyRaG.s 			page 46


 1255              	.LVL120:
 1256              	.LBB245:
 1257              	.LBB246:
 1258              		.loc 2 531 0
 1259              		.syntax unified
 1260              	@ 531 "Drivers/CMSIS/Include/cmsis_gcc.h" 1
 1261 0488 95FAA5F3 		rbit r3, r5
 1262              	@ 0 "" 2
 1263              	.LVL121:
 1264              		.thumb
 1265              		.syntax unified
 1266              	.LBE246:
 1267              	.LBE245:
 654:Drivers/STM32F1xx_HAL_Driver/Src/stm32f1xx_hal_rcc.c ****         {
 1268              		.loc 1 654 0
 1269 048c B3FA83F3 		clz	r3, r3
 1270 0490 03F01F03 		and	r3, r3, #31
 1271 0494 22FA03F3 		lsr	r3, r2, r3
 1272 0498 DB07     		lsls	r3, r3, #31
 1273 049a 7FF5EAAD 		bpl	.L41
 656:Drivers/STM32F1xx_HAL_Driver/Src/stm32f1xx_hal_rcc.c ****           {
 1274              		.loc 1 656 0
 1275 049e FFF7FEFF 		bl	HAL_GetTick
 1276              	.LVL122:
 1277 04a2 801B     		subs	r0, r0, r6
 1278 04a4 0228     		cmp	r0, #2
 1279 04a6 ECD9     		bls	.L62
 1280 04a8 28E6     		b	.L19
 1281              	.L93:
 1282 04aa 00BF     		.align	2
 1283              	.L92:
 1284 04ac 00100240 		.word	1073876992
 1285              		.cfi_endproc
 1286              	.LFE65:
 1288              		.section	.text.HAL_RCC_MCOConfig,"ax",%progbits
 1289              		.align	1
 1290              		.global	HAL_RCC_MCOConfig
 1291              		.syntax unified
 1292              		.thumb
 1293              		.thumb_func
 1294              		.fpu softvfp
 1296              	HAL_RCC_MCOConfig:
 1297              	.LFB67:
 671:Drivers/STM32F1xx_HAL_Driver/Src/stm32f1xx_hal_rcc.c **** 
 672:Drivers/STM32F1xx_HAL_Driver/Src/stm32f1xx_hal_rcc.c **** /**
 673:Drivers/STM32F1xx_HAL_Driver/Src/stm32f1xx_hal_rcc.c ****   * @brief  Initializes the CPU, AHB and APB buses clocks according to the specified 
 674:Drivers/STM32F1xx_HAL_Driver/Src/stm32f1xx_hal_rcc.c ****   *         parameters in the RCC_ClkInitStruct.
 675:Drivers/STM32F1xx_HAL_Driver/Src/stm32f1xx_hal_rcc.c ****   * @param  RCC_ClkInitStruct pointer to an RCC_OscInitTypeDef structure that
 676:Drivers/STM32F1xx_HAL_Driver/Src/stm32f1xx_hal_rcc.c ****   *         contains the configuration information for the RCC peripheral.
 677:Drivers/STM32F1xx_HAL_Driver/Src/stm32f1xx_hal_rcc.c ****   * @param  FLatency FLASH Latency                   
 678:Drivers/STM32F1xx_HAL_Driver/Src/stm32f1xx_hal_rcc.c ****   *          The value of this parameter depend on device used within the same series
 679:Drivers/STM32F1xx_HAL_Driver/Src/stm32f1xx_hal_rcc.c ****   * @note   The SystemCoreClock CMSIS variable is used to store System Clock Frequency 
 680:Drivers/STM32F1xx_HAL_Driver/Src/stm32f1xx_hal_rcc.c ****   *         and updated by @ref HAL_RCC_GetHCLKFreq() function called within this function
 681:Drivers/STM32F1xx_HAL_Driver/Src/stm32f1xx_hal_rcc.c ****   *
 682:Drivers/STM32F1xx_HAL_Driver/Src/stm32f1xx_hal_rcc.c ****   * @note   The HSI is used (enabled by hardware) as system clock source after
 683:Drivers/STM32F1xx_HAL_Driver/Src/stm32f1xx_hal_rcc.c ****   *         start-up from Reset, wake-up from STOP and STANDBY mode, or in case
 684:Drivers/STM32F1xx_HAL_Driver/Src/stm32f1xx_hal_rcc.c ****   *         of failure of the HSE used directly or indirectly as system clock
ARM GAS  /tmp/ccukyRaG.s 			page 47


 685:Drivers/STM32F1xx_HAL_Driver/Src/stm32f1xx_hal_rcc.c ****   *         (if the Clock Security System CSS is enabled).
 686:Drivers/STM32F1xx_HAL_Driver/Src/stm32f1xx_hal_rcc.c ****   *           
 687:Drivers/STM32F1xx_HAL_Driver/Src/stm32f1xx_hal_rcc.c ****   * @note   A switch from one clock source to another occurs only if the target
 688:Drivers/STM32F1xx_HAL_Driver/Src/stm32f1xx_hal_rcc.c ****   *         clock source is ready (clock stable after start-up delay or PLL locked). 
 689:Drivers/STM32F1xx_HAL_Driver/Src/stm32f1xx_hal_rcc.c ****   *         If a clock source which is not yet ready is selected, the switch will
 690:Drivers/STM32F1xx_HAL_Driver/Src/stm32f1xx_hal_rcc.c ****   *         occur when the clock source will be ready. 
 691:Drivers/STM32F1xx_HAL_Driver/Src/stm32f1xx_hal_rcc.c ****   *         You can use @ref HAL_RCC_GetClockConfig() function to know which clock is
 692:Drivers/STM32F1xx_HAL_Driver/Src/stm32f1xx_hal_rcc.c ****   *         currently used as system clock source.
 693:Drivers/STM32F1xx_HAL_Driver/Src/stm32f1xx_hal_rcc.c ****   * @retval HAL status
 694:Drivers/STM32F1xx_HAL_Driver/Src/stm32f1xx_hal_rcc.c ****   */
 695:Drivers/STM32F1xx_HAL_Driver/Src/stm32f1xx_hal_rcc.c **** HAL_StatusTypeDef HAL_RCC_ClockConfig(RCC_ClkInitTypeDef  *RCC_ClkInitStruct, uint32_t FLatency)
 696:Drivers/STM32F1xx_HAL_Driver/Src/stm32f1xx_hal_rcc.c **** {
 697:Drivers/STM32F1xx_HAL_Driver/Src/stm32f1xx_hal_rcc.c ****   uint32_t tickstart = 0;
 698:Drivers/STM32F1xx_HAL_Driver/Src/stm32f1xx_hal_rcc.c ****   
 699:Drivers/STM32F1xx_HAL_Driver/Src/stm32f1xx_hal_rcc.c ****   /* Check the parameters */
 700:Drivers/STM32F1xx_HAL_Driver/Src/stm32f1xx_hal_rcc.c ****   assert_param(RCC_ClkInitStruct != NULL);
 701:Drivers/STM32F1xx_HAL_Driver/Src/stm32f1xx_hal_rcc.c ****   assert_param(IS_RCC_CLOCKTYPE(RCC_ClkInitStruct->ClockType));
 702:Drivers/STM32F1xx_HAL_Driver/Src/stm32f1xx_hal_rcc.c ****   assert_param(IS_FLASH_LATENCY(FLatency));
 703:Drivers/STM32F1xx_HAL_Driver/Src/stm32f1xx_hal_rcc.c **** 
 704:Drivers/STM32F1xx_HAL_Driver/Src/stm32f1xx_hal_rcc.c ****   /* To correctly read data from FLASH memory, the number of wait states (LATENCY) 
 705:Drivers/STM32F1xx_HAL_Driver/Src/stm32f1xx_hal_rcc.c ****   must be correctly programmed according to the frequency of the CPU clock 
 706:Drivers/STM32F1xx_HAL_Driver/Src/stm32f1xx_hal_rcc.c ****     (HCLK) of the device. */
 707:Drivers/STM32F1xx_HAL_Driver/Src/stm32f1xx_hal_rcc.c **** 
 708:Drivers/STM32F1xx_HAL_Driver/Src/stm32f1xx_hal_rcc.c **** #if defined(FLASH_ACR_LATENCY)
 709:Drivers/STM32F1xx_HAL_Driver/Src/stm32f1xx_hal_rcc.c ****   /* Increasing the number of wait states because of higher CPU frequency */
 710:Drivers/STM32F1xx_HAL_Driver/Src/stm32f1xx_hal_rcc.c ****   if(FLatency > (FLASH->ACR & FLASH_ACR_LATENCY))
 711:Drivers/STM32F1xx_HAL_Driver/Src/stm32f1xx_hal_rcc.c ****   {    
 712:Drivers/STM32F1xx_HAL_Driver/Src/stm32f1xx_hal_rcc.c ****     /* Program the new number of wait states to the LATENCY bits in the FLASH_ACR register */
 713:Drivers/STM32F1xx_HAL_Driver/Src/stm32f1xx_hal_rcc.c ****     __HAL_FLASH_SET_LATENCY(FLatency);
 714:Drivers/STM32F1xx_HAL_Driver/Src/stm32f1xx_hal_rcc.c ****     
 715:Drivers/STM32F1xx_HAL_Driver/Src/stm32f1xx_hal_rcc.c ****     /* Check that the new number of wait states is taken into account to access the Flash
 716:Drivers/STM32F1xx_HAL_Driver/Src/stm32f1xx_hal_rcc.c ****     memory by reading the FLASH_ACR register */
 717:Drivers/STM32F1xx_HAL_Driver/Src/stm32f1xx_hal_rcc.c ****     if((FLASH->ACR & FLASH_ACR_LATENCY) != FLatency)
 718:Drivers/STM32F1xx_HAL_Driver/Src/stm32f1xx_hal_rcc.c ****     {
 719:Drivers/STM32F1xx_HAL_Driver/Src/stm32f1xx_hal_rcc.c ****       return HAL_ERROR;
 720:Drivers/STM32F1xx_HAL_Driver/Src/stm32f1xx_hal_rcc.c ****     }
 721:Drivers/STM32F1xx_HAL_Driver/Src/stm32f1xx_hal_rcc.c ****   }
 722:Drivers/STM32F1xx_HAL_Driver/Src/stm32f1xx_hal_rcc.c **** 
 723:Drivers/STM32F1xx_HAL_Driver/Src/stm32f1xx_hal_rcc.c **** #endif /* FLASH_ACR_LATENCY */
 724:Drivers/STM32F1xx_HAL_Driver/Src/stm32f1xx_hal_rcc.c ****   /*-------------------------- HCLK Configuration --------------------------*/
 725:Drivers/STM32F1xx_HAL_Driver/Src/stm32f1xx_hal_rcc.c ****   if(((RCC_ClkInitStruct->ClockType) & RCC_CLOCKTYPE_HCLK) == RCC_CLOCKTYPE_HCLK)
 726:Drivers/STM32F1xx_HAL_Driver/Src/stm32f1xx_hal_rcc.c ****   {
 727:Drivers/STM32F1xx_HAL_Driver/Src/stm32f1xx_hal_rcc.c ****     assert_param(IS_RCC_HCLK(RCC_ClkInitStruct->AHBCLKDivider));
 728:Drivers/STM32F1xx_HAL_Driver/Src/stm32f1xx_hal_rcc.c ****     MODIFY_REG(RCC->CFGR, RCC_CFGR_HPRE, RCC_ClkInitStruct->AHBCLKDivider);
 729:Drivers/STM32F1xx_HAL_Driver/Src/stm32f1xx_hal_rcc.c ****   }
 730:Drivers/STM32F1xx_HAL_Driver/Src/stm32f1xx_hal_rcc.c **** 
 731:Drivers/STM32F1xx_HAL_Driver/Src/stm32f1xx_hal_rcc.c ****   /*------------------------- SYSCLK Configuration ---------------------------*/ 
 732:Drivers/STM32F1xx_HAL_Driver/Src/stm32f1xx_hal_rcc.c ****   if(((RCC_ClkInitStruct->ClockType) & RCC_CLOCKTYPE_SYSCLK) == RCC_CLOCKTYPE_SYSCLK)
 733:Drivers/STM32F1xx_HAL_Driver/Src/stm32f1xx_hal_rcc.c ****   {    
 734:Drivers/STM32F1xx_HAL_Driver/Src/stm32f1xx_hal_rcc.c ****     assert_param(IS_RCC_SYSCLKSOURCE(RCC_ClkInitStruct->SYSCLKSource));
 735:Drivers/STM32F1xx_HAL_Driver/Src/stm32f1xx_hal_rcc.c ****     
 736:Drivers/STM32F1xx_HAL_Driver/Src/stm32f1xx_hal_rcc.c ****     /* HSE is selected as System Clock Source */
 737:Drivers/STM32F1xx_HAL_Driver/Src/stm32f1xx_hal_rcc.c ****     if(RCC_ClkInitStruct->SYSCLKSource == RCC_SYSCLKSOURCE_HSE)
 738:Drivers/STM32F1xx_HAL_Driver/Src/stm32f1xx_hal_rcc.c ****     {
 739:Drivers/STM32F1xx_HAL_Driver/Src/stm32f1xx_hal_rcc.c ****       /* Check the HSE ready flag */  
 740:Drivers/STM32F1xx_HAL_Driver/Src/stm32f1xx_hal_rcc.c ****       if(__HAL_RCC_GET_FLAG(RCC_FLAG_HSERDY) == RESET)
 741:Drivers/STM32F1xx_HAL_Driver/Src/stm32f1xx_hal_rcc.c ****       {
ARM GAS  /tmp/ccukyRaG.s 			page 48


 742:Drivers/STM32F1xx_HAL_Driver/Src/stm32f1xx_hal_rcc.c ****         return HAL_ERROR;
 743:Drivers/STM32F1xx_HAL_Driver/Src/stm32f1xx_hal_rcc.c ****       }
 744:Drivers/STM32F1xx_HAL_Driver/Src/stm32f1xx_hal_rcc.c ****     }
 745:Drivers/STM32F1xx_HAL_Driver/Src/stm32f1xx_hal_rcc.c ****     /* PLL is selected as System Clock Source */
 746:Drivers/STM32F1xx_HAL_Driver/Src/stm32f1xx_hal_rcc.c ****     else if(RCC_ClkInitStruct->SYSCLKSource == RCC_SYSCLKSOURCE_PLLCLK)
 747:Drivers/STM32F1xx_HAL_Driver/Src/stm32f1xx_hal_rcc.c ****     {
 748:Drivers/STM32F1xx_HAL_Driver/Src/stm32f1xx_hal_rcc.c ****       /* Check the PLL ready flag */  
 749:Drivers/STM32F1xx_HAL_Driver/Src/stm32f1xx_hal_rcc.c ****       if(__HAL_RCC_GET_FLAG(RCC_FLAG_PLLRDY) == RESET)
 750:Drivers/STM32F1xx_HAL_Driver/Src/stm32f1xx_hal_rcc.c ****       {
 751:Drivers/STM32F1xx_HAL_Driver/Src/stm32f1xx_hal_rcc.c ****         return HAL_ERROR;
 752:Drivers/STM32F1xx_HAL_Driver/Src/stm32f1xx_hal_rcc.c ****       }
 753:Drivers/STM32F1xx_HAL_Driver/Src/stm32f1xx_hal_rcc.c ****     }
 754:Drivers/STM32F1xx_HAL_Driver/Src/stm32f1xx_hal_rcc.c ****     /* HSI is selected as System Clock Source */
 755:Drivers/STM32F1xx_HAL_Driver/Src/stm32f1xx_hal_rcc.c ****     else
 756:Drivers/STM32F1xx_HAL_Driver/Src/stm32f1xx_hal_rcc.c ****     {
 757:Drivers/STM32F1xx_HAL_Driver/Src/stm32f1xx_hal_rcc.c ****       /* Check the HSI ready flag */  
 758:Drivers/STM32F1xx_HAL_Driver/Src/stm32f1xx_hal_rcc.c ****       if(__HAL_RCC_GET_FLAG(RCC_FLAG_HSIRDY) == RESET)
 759:Drivers/STM32F1xx_HAL_Driver/Src/stm32f1xx_hal_rcc.c ****       {
 760:Drivers/STM32F1xx_HAL_Driver/Src/stm32f1xx_hal_rcc.c ****         return HAL_ERROR;
 761:Drivers/STM32F1xx_HAL_Driver/Src/stm32f1xx_hal_rcc.c ****       }
 762:Drivers/STM32F1xx_HAL_Driver/Src/stm32f1xx_hal_rcc.c ****     }
 763:Drivers/STM32F1xx_HAL_Driver/Src/stm32f1xx_hal_rcc.c ****     __HAL_RCC_SYSCLK_CONFIG(RCC_ClkInitStruct->SYSCLKSource);
 764:Drivers/STM32F1xx_HAL_Driver/Src/stm32f1xx_hal_rcc.c **** 
 765:Drivers/STM32F1xx_HAL_Driver/Src/stm32f1xx_hal_rcc.c ****     /* Get Start Tick */
 766:Drivers/STM32F1xx_HAL_Driver/Src/stm32f1xx_hal_rcc.c ****     tickstart = HAL_GetTick();
 767:Drivers/STM32F1xx_HAL_Driver/Src/stm32f1xx_hal_rcc.c ****     
 768:Drivers/STM32F1xx_HAL_Driver/Src/stm32f1xx_hal_rcc.c ****     if(RCC_ClkInitStruct->SYSCLKSource == RCC_SYSCLKSOURCE_HSE)
 769:Drivers/STM32F1xx_HAL_Driver/Src/stm32f1xx_hal_rcc.c ****     {
 770:Drivers/STM32F1xx_HAL_Driver/Src/stm32f1xx_hal_rcc.c ****       while (__HAL_RCC_GET_SYSCLK_SOURCE() != RCC_SYSCLKSOURCE_STATUS_HSE)
 771:Drivers/STM32F1xx_HAL_Driver/Src/stm32f1xx_hal_rcc.c ****       {
 772:Drivers/STM32F1xx_HAL_Driver/Src/stm32f1xx_hal_rcc.c ****         if((HAL_GetTick() - tickstart ) > CLOCKSWITCH_TIMEOUT_VALUE)
 773:Drivers/STM32F1xx_HAL_Driver/Src/stm32f1xx_hal_rcc.c ****         {
 774:Drivers/STM32F1xx_HAL_Driver/Src/stm32f1xx_hal_rcc.c ****           return HAL_TIMEOUT;
 775:Drivers/STM32F1xx_HAL_Driver/Src/stm32f1xx_hal_rcc.c ****         }
 776:Drivers/STM32F1xx_HAL_Driver/Src/stm32f1xx_hal_rcc.c ****       }
 777:Drivers/STM32F1xx_HAL_Driver/Src/stm32f1xx_hal_rcc.c ****     }
 778:Drivers/STM32F1xx_HAL_Driver/Src/stm32f1xx_hal_rcc.c ****     else if(RCC_ClkInitStruct->SYSCLKSource == RCC_SYSCLKSOURCE_PLLCLK)
 779:Drivers/STM32F1xx_HAL_Driver/Src/stm32f1xx_hal_rcc.c ****     {
 780:Drivers/STM32F1xx_HAL_Driver/Src/stm32f1xx_hal_rcc.c ****       while (__HAL_RCC_GET_SYSCLK_SOURCE() != RCC_SYSCLKSOURCE_STATUS_PLLCLK)
 781:Drivers/STM32F1xx_HAL_Driver/Src/stm32f1xx_hal_rcc.c ****       {
 782:Drivers/STM32F1xx_HAL_Driver/Src/stm32f1xx_hal_rcc.c ****         if((HAL_GetTick() - tickstart ) > CLOCKSWITCH_TIMEOUT_VALUE)
 783:Drivers/STM32F1xx_HAL_Driver/Src/stm32f1xx_hal_rcc.c ****         {
 784:Drivers/STM32F1xx_HAL_Driver/Src/stm32f1xx_hal_rcc.c ****           return HAL_TIMEOUT;
 785:Drivers/STM32F1xx_HAL_Driver/Src/stm32f1xx_hal_rcc.c ****         }
 786:Drivers/STM32F1xx_HAL_Driver/Src/stm32f1xx_hal_rcc.c ****       }
 787:Drivers/STM32F1xx_HAL_Driver/Src/stm32f1xx_hal_rcc.c ****     }
 788:Drivers/STM32F1xx_HAL_Driver/Src/stm32f1xx_hal_rcc.c ****     else
 789:Drivers/STM32F1xx_HAL_Driver/Src/stm32f1xx_hal_rcc.c ****     {
 790:Drivers/STM32F1xx_HAL_Driver/Src/stm32f1xx_hal_rcc.c ****       while (__HAL_RCC_GET_SYSCLK_SOURCE() != RCC_SYSCLKSOURCE_STATUS_HSI)
 791:Drivers/STM32F1xx_HAL_Driver/Src/stm32f1xx_hal_rcc.c ****       {
 792:Drivers/STM32F1xx_HAL_Driver/Src/stm32f1xx_hal_rcc.c ****         if((HAL_GetTick() - tickstart ) > CLOCKSWITCH_TIMEOUT_VALUE)
 793:Drivers/STM32F1xx_HAL_Driver/Src/stm32f1xx_hal_rcc.c ****         {
 794:Drivers/STM32F1xx_HAL_Driver/Src/stm32f1xx_hal_rcc.c ****           return HAL_TIMEOUT;
 795:Drivers/STM32F1xx_HAL_Driver/Src/stm32f1xx_hal_rcc.c ****         }
 796:Drivers/STM32F1xx_HAL_Driver/Src/stm32f1xx_hal_rcc.c ****       }
 797:Drivers/STM32F1xx_HAL_Driver/Src/stm32f1xx_hal_rcc.c ****     }      
 798:Drivers/STM32F1xx_HAL_Driver/Src/stm32f1xx_hal_rcc.c ****   }    
ARM GAS  /tmp/ccukyRaG.s 			page 49


 799:Drivers/STM32F1xx_HAL_Driver/Src/stm32f1xx_hal_rcc.c **** #if defined(FLASH_ACR_LATENCY)
 800:Drivers/STM32F1xx_HAL_Driver/Src/stm32f1xx_hal_rcc.c ****   /* Decreasing the number of wait states because of lower CPU frequency */
 801:Drivers/STM32F1xx_HAL_Driver/Src/stm32f1xx_hal_rcc.c ****   if(FLatency < (FLASH->ACR & FLASH_ACR_LATENCY))
 802:Drivers/STM32F1xx_HAL_Driver/Src/stm32f1xx_hal_rcc.c ****   {    
 803:Drivers/STM32F1xx_HAL_Driver/Src/stm32f1xx_hal_rcc.c ****     /* Program the new number of wait states to the LATENCY bits in the FLASH_ACR register */
 804:Drivers/STM32F1xx_HAL_Driver/Src/stm32f1xx_hal_rcc.c ****     __HAL_FLASH_SET_LATENCY(FLatency);
 805:Drivers/STM32F1xx_HAL_Driver/Src/stm32f1xx_hal_rcc.c ****     
 806:Drivers/STM32F1xx_HAL_Driver/Src/stm32f1xx_hal_rcc.c ****     /* Check that the new number of wait states is taken into account to access the Flash
 807:Drivers/STM32F1xx_HAL_Driver/Src/stm32f1xx_hal_rcc.c ****     memory by reading the FLASH_ACR register */
 808:Drivers/STM32F1xx_HAL_Driver/Src/stm32f1xx_hal_rcc.c ****     if((FLASH->ACR & FLASH_ACR_LATENCY) != FLatency)
 809:Drivers/STM32F1xx_HAL_Driver/Src/stm32f1xx_hal_rcc.c ****     {
 810:Drivers/STM32F1xx_HAL_Driver/Src/stm32f1xx_hal_rcc.c ****       return HAL_ERROR;
 811:Drivers/STM32F1xx_HAL_Driver/Src/stm32f1xx_hal_rcc.c ****     }
 812:Drivers/STM32F1xx_HAL_Driver/Src/stm32f1xx_hal_rcc.c ****   }    
 813:Drivers/STM32F1xx_HAL_Driver/Src/stm32f1xx_hal_rcc.c **** #endif /* FLASH_ACR_LATENCY */
 814:Drivers/STM32F1xx_HAL_Driver/Src/stm32f1xx_hal_rcc.c **** 
 815:Drivers/STM32F1xx_HAL_Driver/Src/stm32f1xx_hal_rcc.c ****   /*-------------------------- PCLK1 Configuration ---------------------------*/ 
 816:Drivers/STM32F1xx_HAL_Driver/Src/stm32f1xx_hal_rcc.c ****   if(((RCC_ClkInitStruct->ClockType) & RCC_CLOCKTYPE_PCLK1) == RCC_CLOCKTYPE_PCLK1)
 817:Drivers/STM32F1xx_HAL_Driver/Src/stm32f1xx_hal_rcc.c ****   {
 818:Drivers/STM32F1xx_HAL_Driver/Src/stm32f1xx_hal_rcc.c ****     assert_param(IS_RCC_PCLK(RCC_ClkInitStruct->APB1CLKDivider));
 819:Drivers/STM32F1xx_HAL_Driver/Src/stm32f1xx_hal_rcc.c ****     MODIFY_REG(RCC->CFGR, RCC_CFGR_PPRE1, RCC_ClkInitStruct->APB1CLKDivider);
 820:Drivers/STM32F1xx_HAL_Driver/Src/stm32f1xx_hal_rcc.c ****   }
 821:Drivers/STM32F1xx_HAL_Driver/Src/stm32f1xx_hal_rcc.c ****   
 822:Drivers/STM32F1xx_HAL_Driver/Src/stm32f1xx_hal_rcc.c ****   /*-------------------------- PCLK2 Configuration ---------------------------*/ 
 823:Drivers/STM32F1xx_HAL_Driver/Src/stm32f1xx_hal_rcc.c ****   if(((RCC_ClkInitStruct->ClockType) & RCC_CLOCKTYPE_PCLK2) == RCC_CLOCKTYPE_PCLK2)
 824:Drivers/STM32F1xx_HAL_Driver/Src/stm32f1xx_hal_rcc.c ****   {
 825:Drivers/STM32F1xx_HAL_Driver/Src/stm32f1xx_hal_rcc.c ****     assert_param(IS_RCC_PCLK(RCC_ClkInitStruct->APB2CLKDivider));
 826:Drivers/STM32F1xx_HAL_Driver/Src/stm32f1xx_hal_rcc.c ****     MODIFY_REG(RCC->CFGR, RCC_CFGR_PPRE2, ((RCC_ClkInitStruct->APB2CLKDivider) << 3));
 827:Drivers/STM32F1xx_HAL_Driver/Src/stm32f1xx_hal_rcc.c ****   }
 828:Drivers/STM32F1xx_HAL_Driver/Src/stm32f1xx_hal_rcc.c ****  
 829:Drivers/STM32F1xx_HAL_Driver/Src/stm32f1xx_hal_rcc.c ****   /* Update the SystemCoreClock global variable */
 830:Drivers/STM32F1xx_HAL_Driver/Src/stm32f1xx_hal_rcc.c ****   SystemCoreClock = HAL_RCC_GetSysClockFreq() >> AHBPrescTable[(RCC->CFGR & RCC_CFGR_HPRE)>> RCC_CF
 831:Drivers/STM32F1xx_HAL_Driver/Src/stm32f1xx_hal_rcc.c **** 
 832:Drivers/STM32F1xx_HAL_Driver/Src/stm32f1xx_hal_rcc.c ****   /* Configure the source of time base considering new system clocks settings*/
 833:Drivers/STM32F1xx_HAL_Driver/Src/stm32f1xx_hal_rcc.c ****   HAL_InitTick (TICK_INT_PRIORITY);
 834:Drivers/STM32F1xx_HAL_Driver/Src/stm32f1xx_hal_rcc.c ****   
 835:Drivers/STM32F1xx_HAL_Driver/Src/stm32f1xx_hal_rcc.c ****   return HAL_OK;
 836:Drivers/STM32F1xx_HAL_Driver/Src/stm32f1xx_hal_rcc.c **** }
 837:Drivers/STM32F1xx_HAL_Driver/Src/stm32f1xx_hal_rcc.c **** 
 838:Drivers/STM32F1xx_HAL_Driver/Src/stm32f1xx_hal_rcc.c **** /**
 839:Drivers/STM32F1xx_HAL_Driver/Src/stm32f1xx_hal_rcc.c ****   * @}
 840:Drivers/STM32F1xx_HAL_Driver/Src/stm32f1xx_hal_rcc.c ****   */
 841:Drivers/STM32F1xx_HAL_Driver/Src/stm32f1xx_hal_rcc.c **** 
 842:Drivers/STM32F1xx_HAL_Driver/Src/stm32f1xx_hal_rcc.c **** /** @defgroup RCC_Exported_Functions_Group2 Peripheral Control functions
 843:Drivers/STM32F1xx_HAL_Driver/Src/stm32f1xx_hal_rcc.c ****   *  @brief   RCC clocks control functions
 844:Drivers/STM32F1xx_HAL_Driver/Src/stm32f1xx_hal_rcc.c ****   *
 845:Drivers/STM32F1xx_HAL_Driver/Src/stm32f1xx_hal_rcc.c ****   @verbatim   
 846:Drivers/STM32F1xx_HAL_Driver/Src/stm32f1xx_hal_rcc.c ****   ===============================================================================
 847:Drivers/STM32F1xx_HAL_Driver/Src/stm32f1xx_hal_rcc.c ****                   ##### Peripheral Control functions #####
 848:Drivers/STM32F1xx_HAL_Driver/Src/stm32f1xx_hal_rcc.c ****   ===============================================================================  
 849:Drivers/STM32F1xx_HAL_Driver/Src/stm32f1xx_hal_rcc.c ****     [..]
 850:Drivers/STM32F1xx_HAL_Driver/Src/stm32f1xx_hal_rcc.c ****     This subsection provides a set of functions allowing to control the RCC Clocks 
 851:Drivers/STM32F1xx_HAL_Driver/Src/stm32f1xx_hal_rcc.c ****     frequencies.
 852:Drivers/STM32F1xx_HAL_Driver/Src/stm32f1xx_hal_rcc.c **** 
 853:Drivers/STM32F1xx_HAL_Driver/Src/stm32f1xx_hal_rcc.c ****   @endverbatim
 854:Drivers/STM32F1xx_HAL_Driver/Src/stm32f1xx_hal_rcc.c ****   * @{
 855:Drivers/STM32F1xx_HAL_Driver/Src/stm32f1xx_hal_rcc.c ****   */
ARM GAS  /tmp/ccukyRaG.s 			page 50


 856:Drivers/STM32F1xx_HAL_Driver/Src/stm32f1xx_hal_rcc.c **** 
 857:Drivers/STM32F1xx_HAL_Driver/Src/stm32f1xx_hal_rcc.c **** /**
 858:Drivers/STM32F1xx_HAL_Driver/Src/stm32f1xx_hal_rcc.c ****   * @brief  Selects the clock source to output on MCO pin.
 859:Drivers/STM32F1xx_HAL_Driver/Src/stm32f1xx_hal_rcc.c ****   * @note   MCO pin should be configured in alternate function mode.
 860:Drivers/STM32F1xx_HAL_Driver/Src/stm32f1xx_hal_rcc.c ****   * @param  RCC_MCOx specifies the output direction for the clock source.
 861:Drivers/STM32F1xx_HAL_Driver/Src/stm32f1xx_hal_rcc.c ****   *          This parameter can be one of the following values:
 862:Drivers/STM32F1xx_HAL_Driver/Src/stm32f1xx_hal_rcc.c ****   *            @arg @ref RCC_MCO1 Clock source to output on MCO1 pin(PA8).
 863:Drivers/STM32F1xx_HAL_Driver/Src/stm32f1xx_hal_rcc.c ****   * @param  RCC_MCOSource specifies the clock source to output.
 864:Drivers/STM32F1xx_HAL_Driver/Src/stm32f1xx_hal_rcc.c ****   *          This parameter can be one of the following values:
 865:Drivers/STM32F1xx_HAL_Driver/Src/stm32f1xx_hal_rcc.c ****   *            @arg @ref RCC_MCO1SOURCE_NOCLOCK     No clock selected as MCO clock
 866:Drivers/STM32F1xx_HAL_Driver/Src/stm32f1xx_hal_rcc.c ****   *            @arg @ref RCC_MCO1SOURCE_SYSCLK      System clock selected as MCO clock
 867:Drivers/STM32F1xx_HAL_Driver/Src/stm32f1xx_hal_rcc.c ****   *            @arg @ref RCC_MCO1SOURCE_HSI         HSI selected as MCO clock
 868:Drivers/STM32F1xx_HAL_Driver/Src/stm32f1xx_hal_rcc.c ****   *            @arg @ref RCC_MCO1SOURCE_HSE         HSE selected as MCO clock
 869:Drivers/STM32F1xx_HAL_Driver/Src/stm32f1xx_hal_rcc.c ****   @if STM32F105xC
 870:Drivers/STM32F1xx_HAL_Driver/Src/stm32f1xx_hal_rcc.c ****   *            @arg @ref RCC_MCO1SOURCE_PLLCLK       PLL clock divided by 2 selected as MCO source
 871:Drivers/STM32F1xx_HAL_Driver/Src/stm32f1xx_hal_rcc.c ****   *            @arg @ref RCC_MCO1SOURCE_PLL2CLK      PLL2 clock selected as MCO source
 872:Drivers/STM32F1xx_HAL_Driver/Src/stm32f1xx_hal_rcc.c ****   *            @arg @ref RCC_MCO1SOURCE_PLL3CLK_DIV2 PLL3 clock divided by 2 selected as MCO source
 873:Drivers/STM32F1xx_HAL_Driver/Src/stm32f1xx_hal_rcc.c ****   *            @arg @ref RCC_MCO1SOURCE_EXT_HSE      XT1 external 3-25 MHz oscillator clock selecte
 874:Drivers/STM32F1xx_HAL_Driver/Src/stm32f1xx_hal_rcc.c ****   *            @arg @ref RCC_MCO1SOURCE_PLL3CLK      PLL3 clock selected as MCO source
 875:Drivers/STM32F1xx_HAL_Driver/Src/stm32f1xx_hal_rcc.c ****   @endif
 876:Drivers/STM32F1xx_HAL_Driver/Src/stm32f1xx_hal_rcc.c ****   @if STM32F107xC
 877:Drivers/STM32F1xx_HAL_Driver/Src/stm32f1xx_hal_rcc.c ****   *            @arg @ref RCC_MCO1SOURCE_PLLCLK       PLL clock divided by 2 selected as MCO source
 878:Drivers/STM32F1xx_HAL_Driver/Src/stm32f1xx_hal_rcc.c ****   *            @arg @ref RCC_MCO1SOURCE_PLL2CLK      PLL2 clock selected as MCO source
 879:Drivers/STM32F1xx_HAL_Driver/Src/stm32f1xx_hal_rcc.c ****   *            @arg @ref RCC_MCO1SOURCE_PLL3CLK_DIV2 PLL3 clock divided by 2 selected as MCO source
 880:Drivers/STM32F1xx_HAL_Driver/Src/stm32f1xx_hal_rcc.c ****   *            @arg @ref RCC_MCO1SOURCE_EXT_HSE XT1  external 3-25 MHz oscillator clock selected as
 881:Drivers/STM32F1xx_HAL_Driver/Src/stm32f1xx_hal_rcc.c ****   *            @arg @ref RCC_MCO1SOURCE_PLL3CLK      PLL3 clock selected as MCO source
 882:Drivers/STM32F1xx_HAL_Driver/Src/stm32f1xx_hal_rcc.c ****   @endif
 883:Drivers/STM32F1xx_HAL_Driver/Src/stm32f1xx_hal_rcc.c ****   * @param  RCC_MCODiv specifies the MCO DIV.
 884:Drivers/STM32F1xx_HAL_Driver/Src/stm32f1xx_hal_rcc.c ****   *          This parameter can be one of the following values:
 885:Drivers/STM32F1xx_HAL_Driver/Src/stm32f1xx_hal_rcc.c ****   *            @arg @ref RCC_MCODIV_1 no division applied to MCO clock
 886:Drivers/STM32F1xx_HAL_Driver/Src/stm32f1xx_hal_rcc.c ****   * @retval None
 887:Drivers/STM32F1xx_HAL_Driver/Src/stm32f1xx_hal_rcc.c ****   */
 888:Drivers/STM32F1xx_HAL_Driver/Src/stm32f1xx_hal_rcc.c **** void HAL_RCC_MCOConfig(uint32_t RCC_MCOx, uint32_t RCC_MCOSource, uint32_t RCC_MCODiv)
 889:Drivers/STM32F1xx_HAL_Driver/Src/stm32f1xx_hal_rcc.c **** {
 1298              		.loc 1 889 0
 1299              		.cfi_startproc
 1300              		@ args = 0, pretend = 0, frame = 24
 1301              		@ frame_needed = 0, uses_anonymous_args = 0
 1302              	.LVL123:
 1303 0000 30B5     		push	{r4, r5, lr}
 1304              	.LCFI4:
 1305              		.cfi_def_cfa_offset 12
 1306              		.cfi_offset 4, -12
 1307              		.cfi_offset 5, -8
 1308              		.cfi_offset 14, -4
 1309 0002 87B0     		sub	sp, sp, #28
 1310              	.LCFI5:
 1311              		.cfi_def_cfa_offset 40
 1312              		.loc 1 889 0
 1313 0004 0D46     		mov	r5, r1
 890:Drivers/STM32F1xx_HAL_Driver/Src/stm32f1xx_hal_rcc.c ****   GPIO_InitTypeDef gpio = {0};
 1314              		.loc 1 890 0
 1315 0006 1022     		movs	r2, #16
 1316              	.LVL124:
 1317 0008 0021     		movs	r1, #0
 1318              	.LVL125:
 1319 000a 02A8     		add	r0, sp, #8
ARM GAS  /tmp/ccukyRaG.s 			page 51


 1320              	.LVL126:
 1321 000c FFF7FEFF 		bl	memset
 1322              	.LVL127:
 891:Drivers/STM32F1xx_HAL_Driver/Src/stm32f1xx_hal_rcc.c **** 
 892:Drivers/STM32F1xx_HAL_Driver/Src/stm32f1xx_hal_rcc.c ****   /* Check the parameters */
 893:Drivers/STM32F1xx_HAL_Driver/Src/stm32f1xx_hal_rcc.c ****   assert_param(IS_RCC_MCO(RCC_MCOx));
 894:Drivers/STM32F1xx_HAL_Driver/Src/stm32f1xx_hal_rcc.c ****   assert_param(IS_RCC_MCODIV(RCC_MCODiv));
 895:Drivers/STM32F1xx_HAL_Driver/Src/stm32f1xx_hal_rcc.c ****   assert_param(IS_RCC_MCO1SOURCE(RCC_MCOSource));
 896:Drivers/STM32F1xx_HAL_Driver/Src/stm32f1xx_hal_rcc.c ****   
 897:Drivers/STM32F1xx_HAL_Driver/Src/stm32f1xx_hal_rcc.c ****   /* Configure the MCO1 pin in alternate function mode */
 898:Drivers/STM32F1xx_HAL_Driver/Src/stm32f1xx_hal_rcc.c ****   gpio.Mode      = GPIO_MODE_AF_PP;
 1323              		.loc 1 898 0
 1324 0010 0223     		movs	r3, #2
 1325 0012 0393     		str	r3, [sp, #12]
 899:Drivers/STM32F1xx_HAL_Driver/Src/stm32f1xx_hal_rcc.c ****   gpio.Speed     = GPIO_SPEED_FREQ_HIGH;
 1326              		.loc 1 899 0
 1327 0014 0323     		movs	r3, #3
 1328 0016 0593     		str	r3, [sp, #20]
 900:Drivers/STM32F1xx_HAL_Driver/Src/stm32f1xx_hal_rcc.c ****   gpio.Pull      = GPIO_NOPULL;
 901:Drivers/STM32F1xx_HAL_Driver/Src/stm32f1xx_hal_rcc.c ****   gpio.Pin       = MCO1_PIN;
 1329              		.loc 1 901 0
 1330 0018 4FF48073 		mov	r3, #256
 1331              	.LBB247:
 902:Drivers/STM32F1xx_HAL_Driver/Src/stm32f1xx_hal_rcc.c **** 
 903:Drivers/STM32F1xx_HAL_Driver/Src/stm32f1xx_hal_rcc.c ****   /* MCO1 Clock Enable */
 904:Drivers/STM32F1xx_HAL_Driver/Src/stm32f1xx_hal_rcc.c ****   MCO1_CLK_ENABLE();
 1332              		.loc 1 904 0
 1333 001c 0A4C     		ldr	r4, .L95
 1334              	.LBE247:
 901:Drivers/STM32F1xx_HAL_Driver/Src/stm32f1xx_hal_rcc.c **** 
 1335              		.loc 1 901 0
 1336 001e 0293     		str	r3, [sp, #8]
 1337              	.LBB248:
 1338              		.loc 1 904 0
 1339 0020 A369     		ldr	r3, [r4, #24]
 1340              	.LBE248:
 905:Drivers/STM32F1xx_HAL_Driver/Src/stm32f1xx_hal_rcc.c ****   
 906:Drivers/STM32F1xx_HAL_Driver/Src/stm32f1xx_hal_rcc.c ****   HAL_GPIO_Init(MCO1_GPIO_PORT, &gpio);
 1341              		.loc 1 906 0
 1342 0022 02A9     		add	r1, sp, #8
 1343              	.LBB249:
 904:Drivers/STM32F1xx_HAL_Driver/Src/stm32f1xx_hal_rcc.c ****   
 1344              		.loc 1 904 0
 1345 0024 43F00403 		orr	r3, r3, #4
 1346 0028 A361     		str	r3, [r4, #24]
 1347 002a A369     		ldr	r3, [r4, #24]
 1348              	.LBE249:
 1349              		.loc 1 906 0
 1350 002c 0748     		ldr	r0, .L95+4
 1351              	.LBB250:
 904:Drivers/STM32F1xx_HAL_Driver/Src/stm32f1xx_hal_rcc.c ****   
 1352              		.loc 1 904 0
 1353 002e 03F00403 		and	r3, r3, #4
 1354 0032 0193     		str	r3, [sp, #4]
 1355 0034 019B     		ldr	r3, [sp, #4]
 1356              	.LBE250:
 1357              		.loc 1 906 0
ARM GAS  /tmp/ccukyRaG.s 			page 52


 1358 0036 FFF7FEFF 		bl	HAL_GPIO_Init
 1359              	.LVL128:
 907:Drivers/STM32F1xx_HAL_Driver/Src/stm32f1xx_hal_rcc.c ****   
 908:Drivers/STM32F1xx_HAL_Driver/Src/stm32f1xx_hal_rcc.c ****   /* Configure the MCO clock source */
 909:Drivers/STM32F1xx_HAL_Driver/Src/stm32f1xx_hal_rcc.c ****   __HAL_RCC_MCO1_CONFIG(RCC_MCOSource, RCC_MCODiv);
 1360              		.loc 1 909 0
 1361 003a 6168     		ldr	r1, [r4, #4]
 1362 003c 21F0E061 		bic	r1, r1, #117440512
 1363 0040 2943     		orrs	r1, r1, r5
 1364 0042 6160     		str	r1, [r4, #4]
 910:Drivers/STM32F1xx_HAL_Driver/Src/stm32f1xx_hal_rcc.c **** }
 1365              		.loc 1 910 0
 1366 0044 07B0     		add	sp, sp, #28
 1367              	.LCFI6:
 1368              		.cfi_def_cfa_offset 12
 1369              		@ sp needed
 1370 0046 30BD     		pop	{r4, r5, pc}
 1371              	.LVL129:
 1372              	.L96:
 1373              		.align	2
 1374              	.L95:
 1375 0048 00100240 		.word	1073876992
 1376 004c 00080140 		.word	1073809408
 1377              		.cfi_endproc
 1378              	.LFE67:
 1380              		.section	.text.HAL_RCC_EnableCSS,"ax",%progbits
 1381              		.align	1
 1382              		.global	HAL_RCC_EnableCSS
 1383              		.syntax unified
 1384              		.thumb
 1385              		.thumb_func
 1386              		.fpu softvfp
 1388              	HAL_RCC_EnableCSS:
 1389              	.LFB68:
 911:Drivers/STM32F1xx_HAL_Driver/Src/stm32f1xx_hal_rcc.c **** 
 912:Drivers/STM32F1xx_HAL_Driver/Src/stm32f1xx_hal_rcc.c **** /**
 913:Drivers/STM32F1xx_HAL_Driver/Src/stm32f1xx_hal_rcc.c ****   * @brief  Enables the Clock Security System.
 914:Drivers/STM32F1xx_HAL_Driver/Src/stm32f1xx_hal_rcc.c ****   * @note   If a failure is detected on the HSE oscillator clock, this oscillator
 915:Drivers/STM32F1xx_HAL_Driver/Src/stm32f1xx_hal_rcc.c ****   *         is automatically disabled and an interrupt is generated to inform the
 916:Drivers/STM32F1xx_HAL_Driver/Src/stm32f1xx_hal_rcc.c ****   *         software about the failure (Clock Security System Interrupt, CSSI),
 917:Drivers/STM32F1xx_HAL_Driver/Src/stm32f1xx_hal_rcc.c ****   *         allowing the MCU to perform rescue operations. The CSSI is linked to 
 918:Drivers/STM32F1xx_HAL_Driver/Src/stm32f1xx_hal_rcc.c ****   *         the Cortex-M3 NMI (Non-Maskable Interrupt) exception vector.  
 919:Drivers/STM32F1xx_HAL_Driver/Src/stm32f1xx_hal_rcc.c ****   * @retval None
 920:Drivers/STM32F1xx_HAL_Driver/Src/stm32f1xx_hal_rcc.c ****   */
 921:Drivers/STM32F1xx_HAL_Driver/Src/stm32f1xx_hal_rcc.c **** void HAL_RCC_EnableCSS(void)
 922:Drivers/STM32F1xx_HAL_Driver/Src/stm32f1xx_hal_rcc.c **** {
 1390              		.loc 1 922 0
 1391              		.cfi_startproc
 1392              		@ args = 0, pretend = 0, frame = 0
 1393              		@ frame_needed = 0, uses_anonymous_args = 0
 1394              		@ link register save eliminated.
 1395              	.LVL130:
 1396              	.LBB251:
 1397              	.LBB252:
 1398              		.loc 2 531 0
 1399 0000 4FF40023 		mov	r3, #524288
 1400              		.syntax unified
ARM GAS  /tmp/ccukyRaG.s 			page 53


 1401              	@ 531 "Drivers/CMSIS/Include/cmsis_gcc.h" 1
 1402 0004 93FAA3F3 		rbit r3, r3
 1403              	@ 0 "" 2
 1404              	.LVL131:
 1405              		.thumb
 1406              		.syntax unified
 1407              	.LBE252:
 1408              	.LBE251:
 923:Drivers/STM32F1xx_HAL_Driver/Src/stm32f1xx_hal_rcc.c ****   *(__IO uint32_t *) RCC_CR_CSSON_BB = (uint32_t)ENABLE;
 1409              		.loc 1 923 0
 1410 0008 B3FA83F3 		clz	r3, r3
 1411 000c 0122     		movs	r2, #1
 1412 000e 9B00     		lsls	r3, r3, #2
 1413 0010 03F18443 		add	r3, r3, #1107296256
 1414 0014 03F58403 		add	r3, r3, #4325376
 1415 0018 1A60     		str	r2, [r3]
 1416 001a 7047     		bx	lr
 1417              		.cfi_endproc
 1418              	.LFE68:
 1420              		.section	.text.HAL_RCC_DisableCSS,"ax",%progbits
 1421              		.align	1
 1422              		.global	HAL_RCC_DisableCSS
 1423              		.syntax unified
 1424              		.thumb
 1425              		.thumb_func
 1426              		.fpu softvfp
 1428              	HAL_RCC_DisableCSS:
 1429              	.LFB69:
 924:Drivers/STM32F1xx_HAL_Driver/Src/stm32f1xx_hal_rcc.c **** }
 925:Drivers/STM32F1xx_HAL_Driver/Src/stm32f1xx_hal_rcc.c **** 
 926:Drivers/STM32F1xx_HAL_Driver/Src/stm32f1xx_hal_rcc.c **** /**
 927:Drivers/STM32F1xx_HAL_Driver/Src/stm32f1xx_hal_rcc.c ****   * @brief  Disables the Clock Security System.
 928:Drivers/STM32F1xx_HAL_Driver/Src/stm32f1xx_hal_rcc.c ****   * @retval None
 929:Drivers/STM32F1xx_HAL_Driver/Src/stm32f1xx_hal_rcc.c ****   */
 930:Drivers/STM32F1xx_HAL_Driver/Src/stm32f1xx_hal_rcc.c **** void HAL_RCC_DisableCSS(void)
 931:Drivers/STM32F1xx_HAL_Driver/Src/stm32f1xx_hal_rcc.c **** {
 1430              		.loc 1 931 0
 1431              		.cfi_startproc
 1432              		@ args = 0, pretend = 0, frame = 0
 1433              		@ frame_needed = 0, uses_anonymous_args = 0
 1434              		@ link register save eliminated.
 1435              	.LVL132:
 1436              	.LBB253:
 1437              	.LBB254:
 1438              		.loc 2 531 0
 1439 0000 4FF40023 		mov	r3, #524288
 1440              		.syntax unified
 1441              	@ 531 "Drivers/CMSIS/Include/cmsis_gcc.h" 1
 1442 0004 93FAA3F3 		rbit r3, r3
 1443              	@ 0 "" 2
 1444              	.LVL133:
 1445              		.thumb
 1446              		.syntax unified
 1447              	.LBE254:
 1448              	.LBE253:
 932:Drivers/STM32F1xx_HAL_Driver/Src/stm32f1xx_hal_rcc.c ****   *(__IO uint32_t *) RCC_CR_CSSON_BB = (uint32_t)DISABLE;
 1449              		.loc 1 932 0
ARM GAS  /tmp/ccukyRaG.s 			page 54


 1450 0008 B3FA83F3 		clz	r3, r3
 1451 000c 0022     		movs	r2, #0
 1452 000e 9B00     		lsls	r3, r3, #2
 1453 0010 03F18443 		add	r3, r3, #1107296256
 1454 0014 03F58403 		add	r3, r3, #4325376
 1455 0018 1A60     		str	r2, [r3]
 1456 001a 7047     		bx	lr
 1457              		.cfi_endproc
 1458              	.LFE69:
 1460              		.section	.text.HAL_RCC_GetSysClockFreq,"ax",%progbits
 1461              		.align	1
 1462              		.global	HAL_RCC_GetSysClockFreq
 1463              		.syntax unified
 1464              		.thumb
 1465              		.thumb_func
 1466              		.fpu softvfp
 1468              	HAL_RCC_GetSysClockFreq:
 1469              	.LFB70:
 933:Drivers/STM32F1xx_HAL_Driver/Src/stm32f1xx_hal_rcc.c **** }
 934:Drivers/STM32F1xx_HAL_Driver/Src/stm32f1xx_hal_rcc.c **** 
 935:Drivers/STM32F1xx_HAL_Driver/Src/stm32f1xx_hal_rcc.c **** /**
 936:Drivers/STM32F1xx_HAL_Driver/Src/stm32f1xx_hal_rcc.c ****   * @brief  Returns the SYSCLK frequency     
 937:Drivers/STM32F1xx_HAL_Driver/Src/stm32f1xx_hal_rcc.c ****   * @note   The system frequency computed by this function is not the real 
 938:Drivers/STM32F1xx_HAL_Driver/Src/stm32f1xx_hal_rcc.c ****   *         frequency in the chip. It is calculated based on the predefined 
 939:Drivers/STM32F1xx_HAL_Driver/Src/stm32f1xx_hal_rcc.c ****   *         constant and the selected clock source:
 940:Drivers/STM32F1xx_HAL_Driver/Src/stm32f1xx_hal_rcc.c ****   * @note     If SYSCLK source is HSI, function returns values based on HSI_VALUE(*)
 941:Drivers/STM32F1xx_HAL_Driver/Src/stm32f1xx_hal_rcc.c ****   * @note     If SYSCLK source is HSE, function returns a value based on HSE_VALUE
 942:Drivers/STM32F1xx_HAL_Driver/Src/stm32f1xx_hal_rcc.c ****   *           divided by PREDIV factor(**)
 943:Drivers/STM32F1xx_HAL_Driver/Src/stm32f1xx_hal_rcc.c ****   * @note     If SYSCLK source is PLL, function returns a value based on HSE_VALUE
 944:Drivers/STM32F1xx_HAL_Driver/Src/stm32f1xx_hal_rcc.c ****   *           divided by PREDIV factor(**) or HSI_VALUE(*) multiplied by the PLL factor.
 945:Drivers/STM32F1xx_HAL_Driver/Src/stm32f1xx_hal_rcc.c ****   * @note     (*) HSI_VALUE is a constant defined in stm32f1xx_hal_conf.h file (default value
 946:Drivers/STM32F1xx_HAL_Driver/Src/stm32f1xx_hal_rcc.c ****   *               8 MHz) but the real value may vary depending on the variations
 947:Drivers/STM32F1xx_HAL_Driver/Src/stm32f1xx_hal_rcc.c ****   *               in voltage and temperature.
 948:Drivers/STM32F1xx_HAL_Driver/Src/stm32f1xx_hal_rcc.c ****   * @note     (**) HSE_VALUE is a constant defined in stm32f1xx_hal_conf.h file (default value
 949:Drivers/STM32F1xx_HAL_Driver/Src/stm32f1xx_hal_rcc.c ****   *                8 MHz), user has to ensure that HSE_VALUE is same as the real
 950:Drivers/STM32F1xx_HAL_Driver/Src/stm32f1xx_hal_rcc.c ****   *                frequency of the crystal used. Otherwise, this function may
 951:Drivers/STM32F1xx_HAL_Driver/Src/stm32f1xx_hal_rcc.c ****   *                have wrong result.
 952:Drivers/STM32F1xx_HAL_Driver/Src/stm32f1xx_hal_rcc.c ****   *                  
 953:Drivers/STM32F1xx_HAL_Driver/Src/stm32f1xx_hal_rcc.c ****   * @note   The result of this function could be not correct when using fractional
 954:Drivers/STM32F1xx_HAL_Driver/Src/stm32f1xx_hal_rcc.c ****   *         value for HSE crystal.
 955:Drivers/STM32F1xx_HAL_Driver/Src/stm32f1xx_hal_rcc.c ****   *           
 956:Drivers/STM32F1xx_HAL_Driver/Src/stm32f1xx_hal_rcc.c ****   * @note   This function can be used by the user application to compute the 
 957:Drivers/STM32F1xx_HAL_Driver/Src/stm32f1xx_hal_rcc.c ****   *         baud-rate for the communication peripherals or configure other parameters.
 958:Drivers/STM32F1xx_HAL_Driver/Src/stm32f1xx_hal_rcc.c ****   *           
 959:Drivers/STM32F1xx_HAL_Driver/Src/stm32f1xx_hal_rcc.c ****   * @note   Each time SYSCLK changes, this function must be called to update the
 960:Drivers/STM32F1xx_HAL_Driver/Src/stm32f1xx_hal_rcc.c ****   *         right SYSCLK value. Otherwise, any configuration based on this function will be incorre
 961:Drivers/STM32F1xx_HAL_Driver/Src/stm32f1xx_hal_rcc.c ****   *         
 962:Drivers/STM32F1xx_HAL_Driver/Src/stm32f1xx_hal_rcc.c ****   * @retval SYSCLK frequency
 963:Drivers/STM32F1xx_HAL_Driver/Src/stm32f1xx_hal_rcc.c ****   */
 964:Drivers/STM32F1xx_HAL_Driver/Src/stm32f1xx_hal_rcc.c **** uint32_t HAL_RCC_GetSysClockFreq(void)
 965:Drivers/STM32F1xx_HAL_Driver/Src/stm32f1xx_hal_rcc.c **** {
 1470              		.loc 1 965 0
 1471              		.cfi_startproc
 1472              		@ args = 0, pretend = 0, frame = 24
 1473              		@ frame_needed = 0, uses_anonymous_args = 0
 1474 0000 30B5     		push	{r4, r5, lr}
 1475              	.LCFI7:
ARM GAS  /tmp/ccukyRaG.s 			page 55


 1476              		.cfi_def_cfa_offset 12
 1477              		.cfi_offset 4, -12
 1478              		.cfi_offset 5, -8
 1479              		.cfi_offset 14, -4
 966:Drivers/STM32F1xx_HAL_Driver/Src/stm32f1xx_hal_rcc.c **** #if   defined(RCC_CFGR2_PREDIV1SRC)
 967:Drivers/STM32F1xx_HAL_Driver/Src/stm32f1xx_hal_rcc.c ****   const uint8_t aPLLMULFactorTable[12] = {0, 0, 4,  5,  6,  7,  8,  9, 0, 0, 0, 13};
 968:Drivers/STM32F1xx_HAL_Driver/Src/stm32f1xx_hal_rcc.c ****   const uint8_t aPredivFactorTable[16] = { 1, 2,  3,  4,  5,  6,  7,  8, 9,10, 11, 12, 13, 14, 15, 
 969:Drivers/STM32F1xx_HAL_Driver/Src/stm32f1xx_hal_rcc.c **** #else
 970:Drivers/STM32F1xx_HAL_Driver/Src/stm32f1xx_hal_rcc.c ****   const uint8_t aPLLMULFactorTable[16] = { 2,  3,  4,  5,  6,  7,  8,  9, 10, 11, 12, 13, 14, 15, 1
 1480              		.loc 1 970 0
 1481 0002 204B     		ldr	r3, .L108
 965:Drivers/STM32F1xx_HAL_Driver/Src/stm32f1xx_hal_rcc.c **** #if   defined(RCC_CFGR2_PREDIV1SRC)
 1482              		.loc 1 965 0
 1483 0004 87B0     		sub	sp, sp, #28
 1484              	.LCFI8:
 1485              		.cfi_def_cfa_offset 40
 1486              		.loc 1 970 0
 1487 0006 02AC     		add	r4, sp, #8
 1488 0008 03F11005 		add	r5, r3, #16
 1489              	.L100:
 1490 000c 2246     		mov	r2, r4
 1491 000e 1868     		ldr	r0, [r3]	@ unaligned
 1492 0010 5968     		ldr	r1, [r3, #4]	@ unaligned
 1493 0012 0833     		adds	r3, r3, #8
 1494 0014 03C2     		stmia	r2!, {r0, r1}
 1495 0016 AB42     		cmp	r3, r5
 1496 0018 1446     		mov	r4, r2
 1497 001a F7D1     		bne	.L100
 971:Drivers/STM32F1xx_HAL_Driver/Src/stm32f1xx_hal_rcc.c **** #if defined(RCC_CFGR2_PREDIV1)
 972:Drivers/STM32F1xx_HAL_Driver/Src/stm32f1xx_hal_rcc.c ****   const uint8_t aPredivFactorTable[16] = { 1, 2,  3,  4,  5,  6,  7,  8, 9,10, 11, 12, 13, 14, 15, 
 973:Drivers/STM32F1xx_HAL_Driver/Src/stm32f1xx_hal_rcc.c **** #else
 974:Drivers/STM32F1xx_HAL_Driver/Src/stm32f1xx_hal_rcc.c ****   const uint8_t aPredivFactorTable[2] = { 1, 2};
 1498              		.loc 1 974 0
 1499 001c 0123     		movs	r3, #1
 1500 001e 8DF80430 		strb	r3, [sp, #4]
 1501 0022 0223     		movs	r3, #2
 975:Drivers/STM32F1xx_HAL_Driver/Src/stm32f1xx_hal_rcc.c **** #endif /*RCC_CFGR2_PREDIV1*/
 976:Drivers/STM32F1xx_HAL_Driver/Src/stm32f1xx_hal_rcc.c **** 
 977:Drivers/STM32F1xx_HAL_Driver/Src/stm32f1xx_hal_rcc.c **** #endif
 978:Drivers/STM32F1xx_HAL_Driver/Src/stm32f1xx_hal_rcc.c ****   uint32_t tmpreg = 0, prediv = 0, pllclk = 0, pllmul = 0;
 979:Drivers/STM32F1xx_HAL_Driver/Src/stm32f1xx_hal_rcc.c ****   uint32_t sysclockfreq = 0;
 980:Drivers/STM32F1xx_HAL_Driver/Src/stm32f1xx_hal_rcc.c **** #if defined(RCC_CFGR2_PREDIV1SRC)
 981:Drivers/STM32F1xx_HAL_Driver/Src/stm32f1xx_hal_rcc.c ****   uint32_t prediv2 = 0, pll2mul = 0;
 982:Drivers/STM32F1xx_HAL_Driver/Src/stm32f1xx_hal_rcc.c **** #endif /*RCC_CFGR2_PREDIV1SRC*/
 983:Drivers/STM32F1xx_HAL_Driver/Src/stm32f1xx_hal_rcc.c ****   
 984:Drivers/STM32F1xx_HAL_Driver/Src/stm32f1xx_hal_rcc.c ****   tmpreg = RCC->CFGR;
 1502              		.loc 1 984 0
 1503 0024 184C     		ldr	r4, .L108+4
 974:Drivers/STM32F1xx_HAL_Driver/Src/stm32f1xx_hal_rcc.c **** #endif /*RCC_CFGR2_PREDIV1*/
 1504              		.loc 1 974 0
 1505 0026 8DF80530 		strb	r3, [sp, #5]
 1506              	.LVL134:
 1507              		.loc 1 984 0
 1508 002a 6168     		ldr	r1, [r4, #4]
 1509              	.LVL135:
 985:Drivers/STM32F1xx_HAL_Driver/Src/stm32f1xx_hal_rcc.c ****   
 986:Drivers/STM32F1xx_HAL_Driver/Src/stm32f1xx_hal_rcc.c ****   /* Get SYSCLK source -------------------------------------------------------*/
ARM GAS  /tmp/ccukyRaG.s 			page 56


 987:Drivers/STM32F1xx_HAL_Driver/Src/stm32f1xx_hal_rcc.c ****   switch (tmpreg & RCC_CFGR_SWS)
 1510              		.loc 1 987 0
 1511 002c 01F00C03 		and	r3, r1, #12
 1512 0030 082B     		cmp	r3, #8
 1513 0032 24D1     		bne	.L106
 1514              	.LVL136:
 1515              	.LBB255:
 1516              	.LBB256:
 1517              		.loc 2 531 0
 1518 0034 4FF47013 		mov	r3, #3932160
 1519              		.syntax unified
 1520              	@ 531 "Drivers/CMSIS/Include/cmsis_gcc.h" 1
 1521 0038 93FAA3F3 		rbit r3, r3
 1522              	@ 0 "" 2
 1523              	.LVL137:
 1524              		.thumb
 1525              		.syntax unified
 1526              	.LBE256:
 1527              	.LBE255:
 988:Drivers/STM32F1xx_HAL_Driver/Src/stm32f1xx_hal_rcc.c ****   {
 989:Drivers/STM32F1xx_HAL_Driver/Src/stm32f1xx_hal_rcc.c ****     case RCC_SYSCLKSOURCE_STATUS_HSE:  /* HSE used as system clock */
 990:Drivers/STM32F1xx_HAL_Driver/Src/stm32f1xx_hal_rcc.c ****     {
 991:Drivers/STM32F1xx_HAL_Driver/Src/stm32f1xx_hal_rcc.c ****       sysclockfreq = HSE_VALUE;
 992:Drivers/STM32F1xx_HAL_Driver/Src/stm32f1xx_hal_rcc.c ****       break;
 993:Drivers/STM32F1xx_HAL_Driver/Src/stm32f1xx_hal_rcc.c ****     }
 994:Drivers/STM32F1xx_HAL_Driver/Src/stm32f1xx_hal_rcc.c ****     case RCC_SYSCLKSOURCE_STATUS_PLLCLK:  /* PLL used as system clock */
 995:Drivers/STM32F1xx_HAL_Driver/Src/stm32f1xx_hal_rcc.c ****     {
 996:Drivers/STM32F1xx_HAL_Driver/Src/stm32f1xx_hal_rcc.c ****       pllmul = aPLLMULFactorTable[(uint32_t)(tmpreg & RCC_CFGR_PLLMULL) >> POSITION_VAL(RCC_CFGR_PL
 1528              		.loc 1 996 0
 1529 003c B3FA83F2 		clz	r2, r3
 1530 0040 01F47013 		and	r3, r1, #3932160
 1531 0044 D340     		lsrs	r3, r3, r2
 1532 0046 06AA     		add	r2, sp, #24
 1533 0048 1344     		add	r3, r3, r2
 1534 004a 13F8100C 		ldrb	r0, [r3, #-16]	@ zero_extendqisi2
 1535              	.LVL138:
 997:Drivers/STM32F1xx_HAL_Driver/Src/stm32f1xx_hal_rcc.c ****       if ((tmpreg & RCC_CFGR_PLLSRC) != RCC_PLLSOURCE_HSI_DIV2)
 1536              		.loc 1 997 0
 1537 004e CB03     		lsls	r3, r1, #15
 1538 0050 13D5     		bpl	.L103
 998:Drivers/STM32F1xx_HAL_Driver/Src/stm32f1xx_hal_rcc.c ****       {
 999:Drivers/STM32F1xx_HAL_Driver/Src/stm32f1xx_hal_rcc.c **** #if defined(RCC_CFGR2_PREDIV1)
1000:Drivers/STM32F1xx_HAL_Driver/Src/stm32f1xx_hal_rcc.c ****         prediv = aPredivFactorTable[(uint32_t)(RCC->CFGR2 & RCC_CFGR2_PREDIV1) >> POSITION_VAL(RCC_
1001:Drivers/STM32F1xx_HAL_Driver/Src/stm32f1xx_hal_rcc.c **** #else
1002:Drivers/STM32F1xx_HAL_Driver/Src/stm32f1xx_hal_rcc.c ****         prediv = aPredivFactorTable[(uint32_t)(RCC->CFGR & RCC_CFGR_PLLXTPRE) >> POSITION_VAL(RCC_C
 1539              		.loc 1 1002 0
 1540 0052 6368     		ldr	r3, [r4, #4]
 1541              	.LVL139:
 1542              	.LBB257:
 1543              	.LBB258:
 1544              		.loc 2 531 0
 1545 0054 4FF40032 		mov	r2, #131072
 1546              		.syntax unified
 1547              	@ 531 "Drivers/CMSIS/Include/cmsis_gcc.h" 1
 1548 0058 92FAA2F2 		rbit r2, r2
 1549              	@ 0 "" 2
 1550              	.LVL140:
ARM GAS  /tmp/ccukyRaG.s 			page 57


 1551              		.thumb
 1552              		.syntax unified
 1553              	.LBE258:
 1554              	.LBE257:
 1555              		.loc 1 1002 0
 1556 005c B2FA82F2 		clz	r2, r2
 1557              	.LVL141:
 1558 0060 03F40033 		and	r3, r3, #131072
 1559              	.LVL142:
 1560 0064 D340     		lsrs	r3, r3, r2
 1561              	.LVL143:
 1562 0066 06AA     		add	r2, sp, #24
 1563 0068 1344     		add	r3, r3, r2
 1564              	.LVL144:
 1565 006a 13F8142C 		ldrb	r2, [r3, #-20]	@ zero_extendqisi2
1003:Drivers/STM32F1xx_HAL_Driver/Src/stm32f1xx_hal_rcc.c **** #endif /*RCC_CFGR2_PREDIV1*/
1004:Drivers/STM32F1xx_HAL_Driver/Src/stm32f1xx_hal_rcc.c **** #if defined(RCC_CFGR2_PREDIV1SRC)
1005:Drivers/STM32F1xx_HAL_Driver/Src/stm32f1xx_hal_rcc.c **** 
1006:Drivers/STM32F1xx_HAL_Driver/Src/stm32f1xx_hal_rcc.c ****         if(HAL_IS_BIT_SET(RCC->CFGR2, RCC_CFGR2_PREDIV1SRC))
1007:Drivers/STM32F1xx_HAL_Driver/Src/stm32f1xx_hal_rcc.c ****         {
1008:Drivers/STM32F1xx_HAL_Driver/Src/stm32f1xx_hal_rcc.c ****           /* PLL2 selected as Prediv1 source */
1009:Drivers/STM32F1xx_HAL_Driver/Src/stm32f1xx_hal_rcc.c ****           /* PLLCLK = PLL2CLK / PREDIV1 * PLLMUL with PLL2CLK = HSE/PREDIV2 * PLL2MUL */
1010:Drivers/STM32F1xx_HAL_Driver/Src/stm32f1xx_hal_rcc.c ****           prediv2 = ((RCC->CFGR2 & RCC_CFGR2_PREDIV2) >> POSITION_VAL(RCC_CFGR2_PREDIV2)) + 1;
1011:Drivers/STM32F1xx_HAL_Driver/Src/stm32f1xx_hal_rcc.c ****           pll2mul = ((RCC->CFGR2 & RCC_CFGR2_PLL2MUL) >> POSITION_VAL(RCC_CFGR2_PLL2MUL)) + 2;
1012:Drivers/STM32F1xx_HAL_Driver/Src/stm32f1xx_hal_rcc.c ****           pllclk = (uint32_t)((((HSE_VALUE / prediv2) * pll2mul) / prediv) * pllmul);
1013:Drivers/STM32F1xx_HAL_Driver/Src/stm32f1xx_hal_rcc.c ****         }
1014:Drivers/STM32F1xx_HAL_Driver/Src/stm32f1xx_hal_rcc.c ****         else
1015:Drivers/STM32F1xx_HAL_Driver/Src/stm32f1xx_hal_rcc.c ****         {
1016:Drivers/STM32F1xx_HAL_Driver/Src/stm32f1xx_hal_rcc.c ****           /* HSE used as PLL clock source : PLLCLK = HSE/PREDIV1 * PLLMUL */
1017:Drivers/STM32F1xx_HAL_Driver/Src/stm32f1xx_hal_rcc.c ****           pllclk = (uint32_t)((HSE_VALUE / prediv) * pllmul);
1018:Drivers/STM32F1xx_HAL_Driver/Src/stm32f1xx_hal_rcc.c ****         }
1019:Drivers/STM32F1xx_HAL_Driver/Src/stm32f1xx_hal_rcc.c ****         
1020:Drivers/STM32F1xx_HAL_Driver/Src/stm32f1xx_hal_rcc.c ****         /* If PLLMUL was set to 13 means that it was to cover the case PLLMUL 6.5 (avoid using floa
1021:Drivers/STM32F1xx_HAL_Driver/Src/stm32f1xx_hal_rcc.c ****         /* In this case need to divide pllclk by 2 */
1022:Drivers/STM32F1xx_HAL_Driver/Src/stm32f1xx_hal_rcc.c ****         if (pllmul == aPLLMULFactorTable[(uint32_t)(RCC_CFGR_PLLMULL6_5) >> POSITION_VAL(RCC_CFGR_P
1023:Drivers/STM32F1xx_HAL_Driver/Src/stm32f1xx_hal_rcc.c ****         {
1024:Drivers/STM32F1xx_HAL_Driver/Src/stm32f1xx_hal_rcc.c ****             pllclk = pllclk / 2;
1025:Drivers/STM32F1xx_HAL_Driver/Src/stm32f1xx_hal_rcc.c ****         }
1026:Drivers/STM32F1xx_HAL_Driver/Src/stm32f1xx_hal_rcc.c **** #else
1027:Drivers/STM32F1xx_HAL_Driver/Src/stm32f1xx_hal_rcc.c ****         /* HSE used as PLL clock source : PLLCLK = HSE/PREDIV1 * PLLMUL */
1028:Drivers/STM32F1xx_HAL_Driver/Src/stm32f1xx_hal_rcc.c ****         pllclk = (uint32_t)((HSE_VALUE / prediv) * pllmul);
 1566              		.loc 1 1028 0
 1567 006e 074B     		ldr	r3, .L108+8
 1568 0070 B3FBF2F3 		udiv	r3, r3, r2
 1569              	.L107:
1029:Drivers/STM32F1xx_HAL_Driver/Src/stm32f1xx_hal_rcc.c **** #endif /*RCC_CFGR2_PREDIV1SRC*/
1030:Drivers/STM32F1xx_HAL_Driver/Src/stm32f1xx_hal_rcc.c ****       }
1031:Drivers/STM32F1xx_HAL_Driver/Src/stm32f1xx_hal_rcc.c ****       else
1032:Drivers/STM32F1xx_HAL_Driver/Src/stm32f1xx_hal_rcc.c ****       {
1033:Drivers/STM32F1xx_HAL_Driver/Src/stm32f1xx_hal_rcc.c ****         /* HSI used as PLL clock source : PLLCLK = HSI/2 * PLLMUL */
1034:Drivers/STM32F1xx_HAL_Driver/Src/stm32f1xx_hal_rcc.c ****         pllclk = (uint32_t)((HSI_VALUE >> 1) * pllmul);
 1570              		.loc 1 1034 0
 1571 0074 5843     		muls	r0, r3, r0
 1572              	.LVL145:
 1573              	.L99:
1035:Drivers/STM32F1xx_HAL_Driver/Src/stm32f1xx_hal_rcc.c ****       }
1036:Drivers/STM32F1xx_HAL_Driver/Src/stm32f1xx_hal_rcc.c ****       sysclockfreq = pllclk;
ARM GAS  /tmp/ccukyRaG.s 			page 58


1037:Drivers/STM32F1xx_HAL_Driver/Src/stm32f1xx_hal_rcc.c ****       break;
1038:Drivers/STM32F1xx_HAL_Driver/Src/stm32f1xx_hal_rcc.c ****     }
1039:Drivers/STM32F1xx_HAL_Driver/Src/stm32f1xx_hal_rcc.c ****     case RCC_SYSCLKSOURCE_STATUS_HSI:  /* HSI used as system clock source */
1040:Drivers/STM32F1xx_HAL_Driver/Src/stm32f1xx_hal_rcc.c ****     default: /* HSI used as system clock */
1041:Drivers/STM32F1xx_HAL_Driver/Src/stm32f1xx_hal_rcc.c ****     {
1042:Drivers/STM32F1xx_HAL_Driver/Src/stm32f1xx_hal_rcc.c ****       sysclockfreq = HSI_VALUE;
1043:Drivers/STM32F1xx_HAL_Driver/Src/stm32f1xx_hal_rcc.c ****       break;
1044:Drivers/STM32F1xx_HAL_Driver/Src/stm32f1xx_hal_rcc.c ****     }
1045:Drivers/STM32F1xx_HAL_Driver/Src/stm32f1xx_hal_rcc.c ****   }
1046:Drivers/STM32F1xx_HAL_Driver/Src/stm32f1xx_hal_rcc.c ****   return sysclockfreq;
1047:Drivers/STM32F1xx_HAL_Driver/Src/stm32f1xx_hal_rcc.c **** }
 1574              		.loc 1 1047 0
 1575 0076 07B0     		add	sp, sp, #28
 1576              	.LCFI9:
 1577              		.cfi_remember_state
 1578              		.cfi_def_cfa_offset 12
 1579              		@ sp needed
 1580 0078 30BD     		pop	{r4, r5, pc}
 1581              	.LVL146:
 1582              	.L103:
 1583              	.LCFI10:
 1584              		.cfi_restore_state
1034:Drivers/STM32F1xx_HAL_Driver/Src/stm32f1xx_hal_rcc.c ****       }
 1585              		.loc 1 1034 0
 1586 007a 054B     		ldr	r3, .L108+12
 1587 007c FAE7     		b	.L107
 1588              	.LVL147:
 1589              	.L106:
 991:Drivers/STM32F1xx_HAL_Driver/Src/stm32f1xx_hal_rcc.c ****       break;
 1590              		.loc 1 991 0
 1591 007e 0348     		ldr	r0, .L108+8
 1592              	.LVL148:
1046:Drivers/STM32F1xx_HAL_Driver/Src/stm32f1xx_hal_rcc.c **** }
 1593              		.loc 1 1046 0
 1594 0080 F9E7     		b	.L99
 1595              	.L109:
 1596 0082 00BF     		.align	2
 1597              	.L108:
 1598 0084 00000000 		.word	.LANCHOR0
 1599 0088 00100240 		.word	1073876992
 1600 008c 00127A00 		.word	8000000
 1601 0090 00093D00 		.word	4000000
 1602              		.cfi_endproc
 1603              	.LFE70:
 1605              		.section	.text.HAL_RCC_ClockConfig,"ax",%progbits
 1606              		.align	1
 1607              		.global	HAL_RCC_ClockConfig
 1608              		.syntax unified
 1609              		.thumb
 1610              		.thumb_func
 1611              		.fpu softvfp
 1613              	HAL_RCC_ClockConfig:
 1614              	.LFB66:
 696:Drivers/STM32F1xx_HAL_Driver/Src/stm32f1xx_hal_rcc.c ****   uint32_t tickstart = 0;
 1615              		.loc 1 696 0
 1616              		.cfi_startproc
 1617              		@ args = 0, pretend = 0, frame = 0
ARM GAS  /tmp/ccukyRaG.s 			page 59


 1618              		@ frame_needed = 0, uses_anonymous_args = 0
 1619              	.LVL149:
 710:Drivers/STM32F1xx_HAL_Driver/Src/stm32f1xx_hal_rcc.c ****   {    
 1620              		.loc 1 710 0
 1621 0000 554A     		ldr	r2, .L155
 696:Drivers/STM32F1xx_HAL_Driver/Src/stm32f1xx_hal_rcc.c ****   uint32_t tickstart = 0;
 1622              		.loc 1 696 0
 1623 0002 2DE9F041 		push	{r4, r5, r6, r7, r8, lr}
 1624              	.LCFI11:
 1625              		.cfi_def_cfa_offset 24
 1626              		.cfi_offset 4, -24
 1627              		.cfi_offset 5, -20
 1628              		.cfi_offset 6, -16
 1629              		.cfi_offset 7, -12
 1630              		.cfi_offset 8, -8
 1631              		.cfi_offset 14, -4
 710:Drivers/STM32F1xx_HAL_Driver/Src/stm32f1xx_hal_rcc.c ****   {    
 1632              		.loc 1 710 0
 1633 0006 1368     		ldr	r3, [r2]
 696:Drivers/STM32F1xx_HAL_Driver/Src/stm32f1xx_hal_rcc.c ****   uint32_t tickstart = 0;
 1634              		.loc 1 696 0
 1635 0008 0646     		mov	r6, r0
 710:Drivers/STM32F1xx_HAL_Driver/Src/stm32f1xx_hal_rcc.c ****   {    
 1636              		.loc 1 710 0
 1637 000a 03F00703 		and	r3, r3, #7
 1638 000e 8B42     		cmp	r3, r1
 696:Drivers/STM32F1xx_HAL_Driver/Src/stm32f1xx_hal_rcc.c ****   uint32_t tickstart = 0;
 1639              		.loc 1 696 0
 1640 0010 0D46     		mov	r5, r1
 710:Drivers/STM32F1xx_HAL_Driver/Src/stm32f1xx_hal_rcc.c ****   {    
 1641              		.loc 1 710 0
 1642 0012 30D3     		bcc	.L111
 1643              	.L114:
 725:Drivers/STM32F1xx_HAL_Driver/Src/stm32f1xx_hal_rcc.c ****   {
 1644              		.loc 1 725 0
 1645 0014 3268     		ldr	r2, [r6]
 1646 0016 9407     		lsls	r4, r2, #30
 1647 0018 3AD4     		bmi	.L112
 1648              	.LVL150:
 1649              	.L113:
 732:Drivers/STM32F1xx_HAL_Driver/Src/stm32f1xx_hal_rcc.c ****   {    
 1650              		.loc 1 732 0
 1651 001a D007     		lsls	r0, r2, #31
 1652 001c 40D4     		bmi	.L116
 1653              	.LVL151:
 1654              	.L126:
 801:Drivers/STM32F1xx_HAL_Driver/Src/stm32f1xx_hal_rcc.c ****   {    
 1655              		.loc 1 801 0
 1656 001e 4E4A     		ldr	r2, .L155
 1657 0020 1368     		ldr	r3, [r2]
 1658 0022 03F00703 		and	r3, r3, #7
 1659 0026 9D42     		cmp	r5, r3
 1660 0028 C0F08480 		bcc	.L117
 1661              	.L118:
 816:Drivers/STM32F1xx_HAL_Driver/Src/stm32f1xx_hal_rcc.c ****   {
 1662              		.loc 1 816 0
 1663 002c 3268     		ldr	r2, [r6]
ARM GAS  /tmp/ccukyRaG.s 			page 60


 1664 002e 4B4C     		ldr	r4, .L155+4
 1665 0030 12F0040F 		tst	r2, #4
 1666 0034 40F08980 		bne	.L132
 1667              	.L133:
 823:Drivers/STM32F1xx_HAL_Driver/Src/stm32f1xx_hal_rcc.c ****   {
 1668              		.loc 1 823 0
 1669 0038 1307     		lsls	r3, r2, #28
 1670 003a 06D5     		bpl	.L134
 826:Drivers/STM32F1xx_HAL_Driver/Src/stm32f1xx_hal_rcc.c ****   }
 1671              		.loc 1 826 0
 1672 003c 6368     		ldr	r3, [r4, #4]
 1673 003e 3269     		ldr	r2, [r6, #16]
 1674 0040 23F46053 		bic	r3, r3, #14336
 1675 0044 43EAC203 		orr	r3, r3, r2, lsl #3
 1676 0048 6360     		str	r3, [r4, #4]
 1677              	.L134:
 830:Drivers/STM32F1xx_HAL_Driver/Src/stm32f1xx_hal_rcc.c **** 
 1678              		.loc 1 830 0
 1679 004a FFF7FEFF 		bl	HAL_RCC_GetSysClockFreq
 1680              	.LVL152:
 1681 004e 6368     		ldr	r3, [r4, #4]
 1682              	.LVL153:
 1683              	.LBB259:
 1684              	.LBB260:
 1685              		.loc 2 531 0
 1686 0050 F022     		movs	r2, #240
 1687              		.syntax unified
 1688              	@ 531 "Drivers/CMSIS/Include/cmsis_gcc.h" 1
 1689 0052 92FAA2F2 		rbit r2, r2
 1690              	@ 0 "" 2
 1691              	.LVL154:
 1692              		.thumb
 1693              		.syntax unified
 1694              	.LBE260:
 1695              	.LBE259:
 830:Drivers/STM32F1xx_HAL_Driver/Src/stm32f1xx_hal_rcc.c **** 
 1696              		.loc 1 830 0
 1697 0056 B2FA82F2 		clz	r2, r2
 1698 005a 03F0F003 		and	r3, r3, #240
 1699 005e D340     		lsrs	r3, r3, r2
 1700 0060 3F4A     		ldr	r2, .L155+8
 1701 0062 D35C     		ldrb	r3, [r2, r3]	@ zero_extendqisi2
 1702 0064 D840     		lsrs	r0, r0, r3
 1703 0066 3F4B     		ldr	r3, .L155+12
 1704 0068 1860     		str	r0, [r3]
 833:Drivers/STM32F1xx_HAL_Driver/Src/stm32f1xx_hal_rcc.c ****   
 1705              		.loc 1 833 0
 1706 006a 0020     		movs	r0, #0
 1707 006c FFF7FEFF 		bl	HAL_InitTick
 1708              	.LVL155:
 835:Drivers/STM32F1xx_HAL_Driver/Src/stm32f1xx_hal_rcc.c **** }
 1709              		.loc 1 835 0
 1710 0070 0020     		movs	r0, #0
 836:Drivers/STM32F1xx_HAL_Driver/Src/stm32f1xx_hal_rcc.c **** 
 1711              		.loc 1 836 0
 1712 0072 BDE8F081 		pop	{r4, r5, r6, r7, r8, pc}
 1713              	.LVL156:
ARM GAS  /tmp/ccukyRaG.s 			page 61


 1714              	.L111:
 713:Drivers/STM32F1xx_HAL_Driver/Src/stm32f1xx_hal_rcc.c ****     
 1715              		.loc 1 713 0
 1716 0076 1368     		ldr	r3, [r2]
 1717 0078 23F00703 		bic	r3, r3, #7
 1718 007c 0B43     		orrs	r3, r3, r1
 1719 007e 1360     		str	r3, [r2]
 717:Drivers/STM32F1xx_HAL_Driver/Src/stm32f1xx_hal_rcc.c ****     {
 1720              		.loc 1 717 0
 1721 0080 1368     		ldr	r3, [r2]
 1722 0082 03F00703 		and	r3, r3, #7
 1723 0086 9942     		cmp	r1, r3
 1724 0088 C4D0     		beq	.L114
 1725              	.LVL157:
 1726              	.L120:
 719:Drivers/STM32F1xx_HAL_Driver/Src/stm32f1xx_hal_rcc.c ****     }
 1727              		.loc 1 719 0
 1728 008a 0120     		movs	r0, #1
 1729 008c BDE8F081 		pop	{r4, r5, r6, r7, r8, pc}
 1730              	.LVL158:
 1731              	.L112:
 728:Drivers/STM32F1xx_HAL_Driver/Src/stm32f1xx_hal_rcc.c ****   }
 1732              		.loc 1 728 0
 1733 0090 3249     		ldr	r1, .L155+4
 1734              	.LVL159:
 1735 0092 B068     		ldr	r0, [r6, #8]
 1736              	.LVL160:
 1737 0094 4B68     		ldr	r3, [r1, #4]
 1738 0096 23F0F003 		bic	r3, r3, #240
 1739 009a 0343     		orrs	r3, r3, r0
 1740 009c 4B60     		str	r3, [r1, #4]
 1741 009e BCE7     		b	.L113
 1742              	.L116:
 737:Drivers/STM32F1xx_HAL_Driver/Src/stm32f1xx_hal_rcc.c ****     {
 1743              		.loc 1 737 0
 1744 00a0 7268     		ldr	r2, [r6, #4]
 1745 00a2 2E4C     		ldr	r4, .L155+4
 1746 00a4 012A     		cmp	r2, #1
 1747 00a6 28D1     		bne	.L119
 1748              	.LVL161:
 1749              	.LBB261:
 1750              	.LBB262:
 1751              		.loc 2 531 0
 1752 00a8 4FF40033 		mov	r3, #131072
 1753              	.LVL162:
 1754              	.L153:
 1755              	.LBE262:
 1756              	.LBE261:
 1757              	.LBB263:
 1758              	.LBB264:
 1759              		.syntax unified
 1760              	@ 531 "Drivers/CMSIS/Include/cmsis_gcc.h" 1
 1761 00ac 93FAA3F1 		rbit r1, r3
 1762              	@ 0 "" 2
 1763              		.thumb
 1764              		.syntax unified
 1765              	.LBE264:
ARM GAS  /tmp/ccukyRaG.s 			page 62


 1766              	.LBE263:
 758:Drivers/STM32F1xx_HAL_Driver/Src/stm32f1xx_hal_rcc.c ****       {
 1767              		.loc 1 758 0
 1768 00b0 2168     		ldr	r1, [r4]
 1769              	.LVL163:
 1770              	.LBB266:
 1771              	.LBB267:
 1772              		.loc 2 531 0
 1773              		.syntax unified
 1774              	@ 531 "Drivers/CMSIS/Include/cmsis_gcc.h" 1
 1775 00b2 93FAA3F3 		rbit r3, r3
 1776              	@ 0 "" 2
 1777              	.LVL164:
 1778              		.thumb
 1779              		.syntax unified
 1780              	.LBE267:
 1781              	.LBE266:
 758:Drivers/STM32F1xx_HAL_Driver/Src/stm32f1xx_hal_rcc.c ****       {
 1782              		.loc 1 758 0
 1783 00b6 B3FA83F3 		clz	r3, r3
 1784 00ba 03F01F03 		and	r3, r3, #31
 1785 00be 21FA03F3 		lsr	r3, r1, r3
 1786 00c2 D907     		lsls	r1, r3, #31
 1787 00c4 E1D5     		bpl	.L120
 763:Drivers/STM32F1xx_HAL_Driver/Src/stm32f1xx_hal_rcc.c **** 
 1788              		.loc 1 763 0
 1789 00c6 6368     		ldr	r3, [r4, #4]
 772:Drivers/STM32F1xx_HAL_Driver/Src/stm32f1xx_hal_rcc.c ****         {
 1790              		.loc 1 772 0
 1791 00c8 41F28838 		movw	r8, #5000
 763:Drivers/STM32F1xx_HAL_Driver/Src/stm32f1xx_hal_rcc.c **** 
 1792              		.loc 1 763 0
 1793 00cc 23F00303 		bic	r3, r3, #3
 1794 00d0 1A43     		orrs	r2, r2, r3
 1795 00d2 6260     		str	r2, [r4, #4]
 766:Drivers/STM32F1xx_HAL_Driver/Src/stm32f1xx_hal_rcc.c ****     
 1796              		.loc 1 766 0
 1797 00d4 FFF7FEFF 		bl	HAL_GetTick
 1798              	.LVL165:
 768:Drivers/STM32F1xx_HAL_Driver/Src/stm32f1xx_hal_rcc.c ****     {
 1799              		.loc 1 768 0
 1800 00d8 7368     		ldr	r3, [r6, #4]
 766:Drivers/STM32F1xx_HAL_Driver/Src/stm32f1xx_hal_rcc.c ****     
 1801              		.loc 1 766 0
 1802 00da 0746     		mov	r7, r0
 1803              	.LVL166:
 768:Drivers/STM32F1xx_HAL_Driver/Src/stm32f1xx_hal_rcc.c ****     {
 1804              		.loc 1 768 0
 1805 00dc 012B     		cmp	r3, #1
 1806 00de 12D1     		bne	.L150
 1807              	.LVL167:
 1808              	.L123:
 770:Drivers/STM32F1xx_HAL_Driver/Src/stm32f1xx_hal_rcc.c ****       {
 1809              		.loc 1 770 0
 1810 00e0 6368     		ldr	r3, [r4, #4]
 1811 00e2 03F00C03 		and	r3, r3, #12
 1812 00e6 042B     		cmp	r3, #4
ARM GAS  /tmp/ccukyRaG.s 			page 63


 1813 00e8 99D0     		beq	.L126
 772:Drivers/STM32F1xx_HAL_Driver/Src/stm32f1xx_hal_rcc.c ****         {
 1814              		.loc 1 772 0
 1815 00ea FFF7FEFF 		bl	HAL_GetTick
 1816              	.LVL168:
 1817 00ee C01B     		subs	r0, r0, r7
 1818 00f0 4045     		cmp	r0, r8
 1819 00f2 F5D9     		bls	.L123
 1820              	.L129:
 774:Drivers/STM32F1xx_HAL_Driver/Src/stm32f1xx_hal_rcc.c ****         }
 1821              		.loc 1 774 0
 1822 00f4 0320     		movs	r0, #3
 1823 00f6 BDE8F081 		pop	{r4, r5, r6, r7, r8, pc}
 1824              	.LVL169:
 1825              	.L119:
 746:Drivers/STM32F1xx_HAL_Driver/Src/stm32f1xx_hal_rcc.c ****     {
 1826              		.loc 1 746 0
 1827 00fa 022A     		cmp	r2, #2
 1828              	.LVL170:
 1829              	.LBB268:
 1830              	.LBB269:
 1831              		.loc 2 531 0
 1832 00fc 0CBF     		ite	eq
 1833 00fe 4FF00073 		moveq	r3, #33554432
 1834              	.LVL171:
 1835              	.LBE269:
 1836              	.LBE268:
 1837              	.LBB270:
 1838              	.LBB265:
 1839 0102 0223     		movne	r3, #2
 1840 0104 D2E7     		b	.L153
 1841              	.LVL172:
 1842              	.L150:
 1843              	.LBE265:
 1844              	.LBE270:
 778:Drivers/STM32F1xx_HAL_Driver/Src/stm32f1xx_hal_rcc.c ****     {
 1845              		.loc 1 778 0
 1846 0106 022B     		cmp	r3, #2
 1847 0108 0FD1     		bne	.L128
 1848              	.LVL173:
 1849              	.L127:
 780:Drivers/STM32F1xx_HAL_Driver/Src/stm32f1xx_hal_rcc.c ****       {
 1850              		.loc 1 780 0
 1851 010a 6368     		ldr	r3, [r4, #4]
 1852 010c 03F00C03 		and	r3, r3, #12
 1853 0110 082B     		cmp	r3, #8
 1854 0112 84D0     		beq	.L126
 782:Drivers/STM32F1xx_HAL_Driver/Src/stm32f1xx_hal_rcc.c ****         {
 1855              		.loc 1 782 0
 1856 0114 FFF7FEFF 		bl	HAL_GetTick
 1857              	.LVL174:
 1858 0118 C01B     		subs	r0, r0, r7
 1859 011a 4045     		cmp	r0, r8
 1860 011c F5D9     		bls	.L127
 1861 011e E9E7     		b	.L129
 1862              	.L131:
 792:Drivers/STM32F1xx_HAL_Driver/Src/stm32f1xx_hal_rcc.c ****         {
ARM GAS  /tmp/ccukyRaG.s 			page 64


 1863              		.loc 1 792 0
 1864 0120 FFF7FEFF 		bl	HAL_GetTick
 1865              	.LVL175:
 1866 0124 C01B     		subs	r0, r0, r7
 1867 0126 4045     		cmp	r0, r8
 1868 0128 E4D8     		bhi	.L129
 1869              	.L128:
 790:Drivers/STM32F1xx_HAL_Driver/Src/stm32f1xx_hal_rcc.c ****       {
 1870              		.loc 1 790 0
 1871 012a 6368     		ldr	r3, [r4, #4]
 1872 012c 13F00C0F 		tst	r3, #12
 1873 0130 F6D1     		bne	.L131
 1874 0132 74E7     		b	.L126
 1875              	.LVL176:
 1876              	.L117:
 804:Drivers/STM32F1xx_HAL_Driver/Src/stm32f1xx_hal_rcc.c ****     
 1877              		.loc 1 804 0
 1878 0134 1368     		ldr	r3, [r2]
 1879 0136 23F00703 		bic	r3, r3, #7
 1880 013a 2B43     		orrs	r3, r3, r5
 1881 013c 1360     		str	r3, [r2]
 808:Drivers/STM32F1xx_HAL_Driver/Src/stm32f1xx_hal_rcc.c ****     {
 1882              		.loc 1 808 0
 1883 013e 1368     		ldr	r3, [r2]
 1884 0140 03F00703 		and	r3, r3, #7
 1885 0144 9D42     		cmp	r5, r3
 1886 0146 A0D1     		bne	.L120
 1887 0148 70E7     		b	.L118
 1888              	.L132:
 819:Drivers/STM32F1xx_HAL_Driver/Src/stm32f1xx_hal_rcc.c ****   }
 1889              		.loc 1 819 0
 1890 014a 6368     		ldr	r3, [r4, #4]
 1891 014c F168     		ldr	r1, [r6, #12]
 1892 014e 23F4E063 		bic	r3, r3, #1792
 1893 0152 0B43     		orrs	r3, r3, r1
 1894 0154 6360     		str	r3, [r4, #4]
 1895 0156 6FE7     		b	.L133
 1896              	.L156:
 1897              		.align	2
 1898              	.L155:
 1899 0158 00200240 		.word	1073881088
 1900 015c 00100240 		.word	1073876992
 1901 0160 00000000 		.word	AHBPrescTable
 1902 0164 00000000 		.word	SystemCoreClock
 1903              		.cfi_endproc
 1904              	.LFE66:
 1906              		.section	.text.HAL_RCC_GetHCLKFreq,"ax",%progbits
 1907              		.align	1
 1908              		.global	HAL_RCC_GetHCLKFreq
 1909              		.syntax unified
 1910              		.thumb
 1911              		.thumb_func
 1912              		.fpu softvfp
 1914              	HAL_RCC_GetHCLKFreq:
 1915              	.LFB71:
1048:Drivers/STM32F1xx_HAL_Driver/Src/stm32f1xx_hal_rcc.c **** 
1049:Drivers/STM32F1xx_HAL_Driver/Src/stm32f1xx_hal_rcc.c **** /**
ARM GAS  /tmp/ccukyRaG.s 			page 65


1050:Drivers/STM32F1xx_HAL_Driver/Src/stm32f1xx_hal_rcc.c ****   * @brief  Returns the HCLK frequency     
1051:Drivers/STM32F1xx_HAL_Driver/Src/stm32f1xx_hal_rcc.c ****   * @note   Each time HCLK changes, this function must be called to update the
1052:Drivers/STM32F1xx_HAL_Driver/Src/stm32f1xx_hal_rcc.c ****   *         right HCLK value. Otherwise, any configuration based on this function will be incorrect
1053:Drivers/STM32F1xx_HAL_Driver/Src/stm32f1xx_hal_rcc.c ****   * 
1054:Drivers/STM32F1xx_HAL_Driver/Src/stm32f1xx_hal_rcc.c ****   * @note   The SystemCoreClock CMSIS variable is used to store System Clock Frequency 
1055:Drivers/STM32F1xx_HAL_Driver/Src/stm32f1xx_hal_rcc.c ****   *         and updated within this function
1056:Drivers/STM32F1xx_HAL_Driver/Src/stm32f1xx_hal_rcc.c ****   * @retval HCLK frequency
1057:Drivers/STM32F1xx_HAL_Driver/Src/stm32f1xx_hal_rcc.c ****   */
1058:Drivers/STM32F1xx_HAL_Driver/Src/stm32f1xx_hal_rcc.c **** uint32_t HAL_RCC_GetHCLKFreq(void)
1059:Drivers/STM32F1xx_HAL_Driver/Src/stm32f1xx_hal_rcc.c **** {
 1916              		.loc 1 1059 0
 1917              		.cfi_startproc
 1918              		@ args = 0, pretend = 0, frame = 0
 1919              		@ frame_needed = 0, uses_anonymous_args = 0
 1920              		@ link register save eliminated.
1060:Drivers/STM32F1xx_HAL_Driver/Src/stm32f1xx_hal_rcc.c ****   return SystemCoreClock;
1061:Drivers/STM32F1xx_HAL_Driver/Src/stm32f1xx_hal_rcc.c **** }
 1921              		.loc 1 1061 0
 1922 0000 014B     		ldr	r3, .L158
 1923 0002 1868     		ldr	r0, [r3]
 1924 0004 7047     		bx	lr
 1925              	.L159:
 1926 0006 00BF     		.align	2
 1927              	.L158:
 1928 0008 00000000 		.word	SystemCoreClock
 1929              		.cfi_endproc
 1930              	.LFE71:
 1932              		.section	.text.HAL_RCC_GetPCLK1Freq,"ax",%progbits
 1933              		.align	1
 1934              		.global	HAL_RCC_GetPCLK1Freq
 1935              		.syntax unified
 1936              		.thumb
 1937              		.thumb_func
 1938              		.fpu softvfp
 1940              	HAL_RCC_GetPCLK1Freq:
 1941              	.LFB72:
1062:Drivers/STM32F1xx_HAL_Driver/Src/stm32f1xx_hal_rcc.c **** 
1063:Drivers/STM32F1xx_HAL_Driver/Src/stm32f1xx_hal_rcc.c **** /**
1064:Drivers/STM32F1xx_HAL_Driver/Src/stm32f1xx_hal_rcc.c ****   * @brief  Returns the PCLK1 frequency     
1065:Drivers/STM32F1xx_HAL_Driver/Src/stm32f1xx_hal_rcc.c ****   * @note   Each time PCLK1 changes, this function must be called to update the
1066:Drivers/STM32F1xx_HAL_Driver/Src/stm32f1xx_hal_rcc.c ****   *         right PCLK1 value. Otherwise, any configuration based on this function will be incorrec
1067:Drivers/STM32F1xx_HAL_Driver/Src/stm32f1xx_hal_rcc.c ****   * @retval PCLK1 frequency
1068:Drivers/STM32F1xx_HAL_Driver/Src/stm32f1xx_hal_rcc.c ****   */
1069:Drivers/STM32F1xx_HAL_Driver/Src/stm32f1xx_hal_rcc.c **** uint32_t HAL_RCC_GetPCLK1Freq(void)
1070:Drivers/STM32F1xx_HAL_Driver/Src/stm32f1xx_hal_rcc.c **** {
 1942              		.loc 1 1070 0
 1943              		.cfi_startproc
 1944              		@ args = 0, pretend = 0, frame = 0
 1945              		@ frame_needed = 0, uses_anonymous_args = 0
 1946              		@ link register save eliminated.
1071:Drivers/STM32F1xx_HAL_Driver/Src/stm32f1xx_hal_rcc.c ****   /* Get HCLK source and Compute PCLK1 frequency ---------------------------*/
1072:Drivers/STM32F1xx_HAL_Driver/Src/stm32f1xx_hal_rcc.c ****   return (HAL_RCC_GetHCLKFreq() >> APBPrescTable[(RCC->CFGR & RCC_CFGR_PPRE1) >> RCC_CFGR_PPRE1_BIT
 1947              		.loc 1 1072 0
 1948 0000 084B     		ldr	r3, .L161
 1949              	.LBB271:
 1950              	.LBB272:
 1951              		.loc 2 531 0
ARM GAS  /tmp/ccukyRaG.s 			page 66


 1952 0002 4FF4E062 		mov	r2, #1792
 1953              	.LBE272:
 1954              	.LBE271:
 1955              		.loc 1 1072 0
 1956 0006 5B68     		ldr	r3, [r3, #4]
 1957              	.LVL177:
 1958              	.LBB274:
 1959              	.LBB273:
 1960              		.loc 2 531 0
 1961              		.syntax unified
 1962              	@ 531 "Drivers/CMSIS/Include/cmsis_gcc.h" 1
 1963 0008 92FAA2F2 		rbit r2, r2
 1964              	@ 0 "" 2
 1965              	.LVL178:
 1966              		.thumb
 1967              		.syntax unified
 1968              	.LBE273:
 1969              	.LBE274:
 1970              		.loc 1 1072 0
 1971 000c B2FA82F2 		clz	r2, r2
 1972 0010 03F4E063 		and	r3, r3, #1792
 1973 0014 D340     		lsrs	r3, r3, r2
 1974 0016 044A     		ldr	r2, .L161+4
 1975 0018 D35C     		ldrb	r3, [r2, r3]	@ zero_extendqisi2
 1976 001a 044A     		ldr	r2, .L161+8
 1977 001c 1068     		ldr	r0, [r2]
1073:Drivers/STM32F1xx_HAL_Driver/Src/stm32f1xx_hal_rcc.c **** }    
 1978              		.loc 1 1073 0
 1979 001e D840     		lsrs	r0, r0, r3
 1980 0020 7047     		bx	lr
 1981              	.L162:
 1982 0022 00BF     		.align	2
 1983              	.L161:
 1984 0024 00100240 		.word	1073876992
 1985 0028 00000000 		.word	APBPrescTable
 1986 002c 00000000 		.word	SystemCoreClock
 1987              		.cfi_endproc
 1988              	.LFE72:
 1990              		.section	.text.HAL_RCC_GetPCLK2Freq,"ax",%progbits
 1991              		.align	1
 1992              		.global	HAL_RCC_GetPCLK2Freq
 1993              		.syntax unified
 1994              		.thumb
 1995              		.thumb_func
 1996              		.fpu softvfp
 1998              	HAL_RCC_GetPCLK2Freq:
 1999              	.LFB73:
1074:Drivers/STM32F1xx_HAL_Driver/Src/stm32f1xx_hal_rcc.c **** 
1075:Drivers/STM32F1xx_HAL_Driver/Src/stm32f1xx_hal_rcc.c **** /**
1076:Drivers/STM32F1xx_HAL_Driver/Src/stm32f1xx_hal_rcc.c ****   * @brief  Returns the PCLK2 frequency     
1077:Drivers/STM32F1xx_HAL_Driver/Src/stm32f1xx_hal_rcc.c ****   * @note   Each time PCLK2 changes, this function must be called to update the
1078:Drivers/STM32F1xx_HAL_Driver/Src/stm32f1xx_hal_rcc.c ****   *         right PCLK2 value. Otherwise, any configuration based on this function will be incorrec
1079:Drivers/STM32F1xx_HAL_Driver/Src/stm32f1xx_hal_rcc.c ****   * @retval PCLK2 frequency
1080:Drivers/STM32F1xx_HAL_Driver/Src/stm32f1xx_hal_rcc.c ****   */
1081:Drivers/STM32F1xx_HAL_Driver/Src/stm32f1xx_hal_rcc.c **** uint32_t HAL_RCC_GetPCLK2Freq(void)
1082:Drivers/STM32F1xx_HAL_Driver/Src/stm32f1xx_hal_rcc.c **** {
 2000              		.loc 1 1082 0
ARM GAS  /tmp/ccukyRaG.s 			page 67


 2001              		.cfi_startproc
 2002              		@ args = 0, pretend = 0, frame = 0
 2003              		@ frame_needed = 0, uses_anonymous_args = 0
 2004              		@ link register save eliminated.
1083:Drivers/STM32F1xx_HAL_Driver/Src/stm32f1xx_hal_rcc.c ****   /* Get HCLK source and Compute PCLK2 frequency ---------------------------*/
1084:Drivers/STM32F1xx_HAL_Driver/Src/stm32f1xx_hal_rcc.c ****   return (HAL_RCC_GetHCLKFreq()>> APBPrescTable[(RCC->CFGR & RCC_CFGR_PPRE2) >> RCC_CFGR_PPRE2_BITN
 2005              		.loc 1 1084 0
 2006 0000 084B     		ldr	r3, .L164
 2007              	.LBB275:
 2008              	.LBB276:
 2009              		.loc 2 531 0
 2010 0002 4FF46052 		mov	r2, #14336
 2011              	.LBE276:
 2012              	.LBE275:
 2013              		.loc 1 1084 0
 2014 0006 5B68     		ldr	r3, [r3, #4]
 2015              	.LVL179:
 2016              	.LBB278:
 2017              	.LBB277:
 2018              		.loc 2 531 0
 2019              		.syntax unified
 2020              	@ 531 "Drivers/CMSIS/Include/cmsis_gcc.h" 1
 2021 0008 92FAA2F2 		rbit r2, r2
 2022              	@ 0 "" 2
 2023              	.LVL180:
 2024              		.thumb
 2025              		.syntax unified
 2026              	.LBE277:
 2027              	.LBE278:
 2028              		.loc 1 1084 0
 2029 000c B2FA82F2 		clz	r2, r2
 2030 0010 03F46053 		and	r3, r3, #14336
 2031 0014 D340     		lsrs	r3, r3, r2
 2032 0016 044A     		ldr	r2, .L164+4
 2033 0018 D35C     		ldrb	r3, [r2, r3]	@ zero_extendqisi2
 2034 001a 044A     		ldr	r2, .L164+8
 2035 001c 1068     		ldr	r0, [r2]
1085:Drivers/STM32F1xx_HAL_Driver/Src/stm32f1xx_hal_rcc.c **** } 
 2036              		.loc 1 1085 0
 2037 001e D840     		lsrs	r0, r0, r3
 2038 0020 7047     		bx	lr
 2039              	.L165:
 2040 0022 00BF     		.align	2
 2041              	.L164:
 2042 0024 00100240 		.word	1073876992
 2043 0028 00000000 		.word	APBPrescTable
 2044 002c 00000000 		.word	SystemCoreClock
 2045              		.cfi_endproc
 2046              	.LFE73:
 2048              		.section	.text.HAL_RCC_GetOscConfig,"ax",%progbits
 2049              		.align	1
 2050              		.global	HAL_RCC_GetOscConfig
 2051              		.syntax unified
 2052              		.thumb
 2053              		.thumb_func
 2054              		.fpu softvfp
 2056              	HAL_RCC_GetOscConfig:
ARM GAS  /tmp/ccukyRaG.s 			page 68


 2057              	.LFB74:
1086:Drivers/STM32F1xx_HAL_Driver/Src/stm32f1xx_hal_rcc.c **** 
1087:Drivers/STM32F1xx_HAL_Driver/Src/stm32f1xx_hal_rcc.c **** /**
1088:Drivers/STM32F1xx_HAL_Driver/Src/stm32f1xx_hal_rcc.c ****   * @brief  Configures the RCC_OscInitStruct according to the internal 
1089:Drivers/STM32F1xx_HAL_Driver/Src/stm32f1xx_hal_rcc.c ****   * RCC configuration registers.
1090:Drivers/STM32F1xx_HAL_Driver/Src/stm32f1xx_hal_rcc.c ****   * @param  RCC_OscInitStruct pointer to an RCC_OscInitTypeDef structure that 
1091:Drivers/STM32F1xx_HAL_Driver/Src/stm32f1xx_hal_rcc.c ****   * will be configured.
1092:Drivers/STM32F1xx_HAL_Driver/Src/stm32f1xx_hal_rcc.c ****   * @retval None
1093:Drivers/STM32F1xx_HAL_Driver/Src/stm32f1xx_hal_rcc.c ****   */
1094:Drivers/STM32F1xx_HAL_Driver/Src/stm32f1xx_hal_rcc.c **** void HAL_RCC_GetOscConfig(RCC_OscInitTypeDef  *RCC_OscInitStruct)
1095:Drivers/STM32F1xx_HAL_Driver/Src/stm32f1xx_hal_rcc.c **** {
 2058              		.loc 1 1095 0
 2059              		.cfi_startproc
 2060              		@ args = 0, pretend = 0, frame = 0
 2061              		@ frame_needed = 0, uses_anonymous_args = 0
 2062              		@ link register save eliminated.
 2063              	.LVL181:
1096:Drivers/STM32F1xx_HAL_Driver/Src/stm32f1xx_hal_rcc.c ****   /* Check the parameters */
1097:Drivers/STM32F1xx_HAL_Driver/Src/stm32f1xx_hal_rcc.c ****   assert_param(RCC_OscInitStruct != NULL);
1098:Drivers/STM32F1xx_HAL_Driver/Src/stm32f1xx_hal_rcc.c **** 
1099:Drivers/STM32F1xx_HAL_Driver/Src/stm32f1xx_hal_rcc.c ****   /* Set all possible values for the Oscillator type parameter ---------------*/
1100:Drivers/STM32F1xx_HAL_Driver/Src/stm32f1xx_hal_rcc.c ****   RCC_OscInitStruct->OscillatorType = RCC_OSCILLATORTYPE_HSE | RCC_OSCILLATORTYPE_HSI  \
 2064              		.loc 1 1100 0
 2065 0000 0F23     		movs	r3, #15
 2066 0002 0360     		str	r3, [r0]
1101:Drivers/STM32F1xx_HAL_Driver/Src/stm32f1xx_hal_rcc.c ****                   | RCC_OSCILLATORTYPE_LSE | RCC_OSCILLATORTYPE_LSI;
1102:Drivers/STM32F1xx_HAL_Driver/Src/stm32f1xx_hal_rcc.c **** 
1103:Drivers/STM32F1xx_HAL_Driver/Src/stm32f1xx_hal_rcc.c **** #if defined(RCC_CFGR2_PREDIV1SRC)
1104:Drivers/STM32F1xx_HAL_Driver/Src/stm32f1xx_hal_rcc.c ****   /* Get the Prediv1 source --------------------------------------------------*/
1105:Drivers/STM32F1xx_HAL_Driver/Src/stm32f1xx_hal_rcc.c ****   RCC_OscInitStruct->Prediv1Source = READ_BIT(RCC->CFGR2,RCC_CFGR2_PREDIV1SRC);
1106:Drivers/STM32F1xx_HAL_Driver/Src/stm32f1xx_hal_rcc.c **** #endif /* RCC_CFGR2_PREDIV1SRC */
1107:Drivers/STM32F1xx_HAL_Driver/Src/stm32f1xx_hal_rcc.c **** 
1108:Drivers/STM32F1xx_HAL_Driver/Src/stm32f1xx_hal_rcc.c ****   /* Get the HSE configuration -----------------------------------------------*/
1109:Drivers/STM32F1xx_HAL_Driver/Src/stm32f1xx_hal_rcc.c ****   if((RCC->CR &RCC_CR_HSEBYP) == RCC_CR_HSEBYP)
 2067              		.loc 1 1109 0
 2068 0004 204B     		ldr	r3, .L180
 2069 0006 1A68     		ldr	r2, [r3]
 2070 0008 5203     		lsls	r2, r2, #13
 2071 000a 30D5     		bpl	.L167
1110:Drivers/STM32F1xx_HAL_Driver/Src/stm32f1xx_hal_rcc.c ****   {
1111:Drivers/STM32F1xx_HAL_Driver/Src/stm32f1xx_hal_rcc.c ****     RCC_OscInitStruct->HSEState = RCC_HSE_BYPASS;
 2072              		.loc 1 1111 0
 2073 000c 4FF4A022 		mov	r2, #327680
 2074              	.L169:
1112:Drivers/STM32F1xx_HAL_Driver/Src/stm32f1xx_hal_rcc.c ****   }
1113:Drivers/STM32F1xx_HAL_Driver/Src/stm32f1xx_hal_rcc.c ****   else if((RCC->CR &RCC_CR_HSEON) == RCC_CR_HSEON)
1114:Drivers/STM32F1xx_HAL_Driver/Src/stm32f1xx_hal_rcc.c ****   {
1115:Drivers/STM32F1xx_HAL_Driver/Src/stm32f1xx_hal_rcc.c ****     RCC_OscInitStruct->HSEState = RCC_HSE_ON;
1116:Drivers/STM32F1xx_HAL_Driver/Src/stm32f1xx_hal_rcc.c ****   }
1117:Drivers/STM32F1xx_HAL_Driver/Src/stm32f1xx_hal_rcc.c ****   else
1118:Drivers/STM32F1xx_HAL_Driver/Src/stm32f1xx_hal_rcc.c ****   {
1119:Drivers/STM32F1xx_HAL_Driver/Src/stm32f1xx_hal_rcc.c ****     RCC_OscInitStruct->HSEState = RCC_HSE_OFF;
 2075              		.loc 1 1119 0
 2076 0010 4260     		str	r2, [r0, #4]
1120:Drivers/STM32F1xx_HAL_Driver/Src/stm32f1xx_hal_rcc.c ****   }
1121:Drivers/STM32F1xx_HAL_Driver/Src/stm32f1xx_hal_rcc.c ****   RCC_OscInitStruct->HSEPredivValue = __HAL_RCC_HSE_GET_PREDIV();
 2077              		.loc 1 1121 0
ARM GAS  /tmp/ccukyRaG.s 			page 69


 2078 0012 5A68     		ldr	r2, [r3, #4]
 2079              	.LBB279:
 2080              	.LBB280:
 2081              		.loc 2 531 0
 2082 0014 F821     		movs	r1, #248
 2083              	.LBE280:
 2084              	.LBE279:
 2085              		.loc 1 1121 0
 2086 0016 02F40032 		and	r2, r2, #131072
 2087 001a 8260     		str	r2, [r0, #8]
1122:Drivers/STM32F1xx_HAL_Driver/Src/stm32f1xx_hal_rcc.c **** 
1123:Drivers/STM32F1xx_HAL_Driver/Src/stm32f1xx_hal_rcc.c ****   /* Get the HSI configuration -----------------------------------------------*/
1124:Drivers/STM32F1xx_HAL_Driver/Src/stm32f1xx_hal_rcc.c ****   if((RCC->CR &RCC_CR_HSION) == RCC_CR_HSION)
 2088              		.loc 1 1124 0
 2089 001c 1A68     		ldr	r2, [r3]
 2090 001e 12F00102 		ands	r2, r2, #1
1125:Drivers/STM32F1xx_HAL_Driver/Src/stm32f1xx_hal_rcc.c ****   {
1126:Drivers/STM32F1xx_HAL_Driver/Src/stm32f1xx_hal_rcc.c ****     RCC_OscInitStruct->HSIState = RCC_HSI_ON;
 2091              		.loc 1 1126 0
 2092 0022 18BF     		it	ne
 2093 0024 0122     		movne	r2, #1
1127:Drivers/STM32F1xx_HAL_Driver/Src/stm32f1xx_hal_rcc.c ****   }
1128:Drivers/STM32F1xx_HAL_Driver/Src/stm32f1xx_hal_rcc.c ****   else
1129:Drivers/STM32F1xx_HAL_Driver/Src/stm32f1xx_hal_rcc.c ****   {
1130:Drivers/STM32F1xx_HAL_Driver/Src/stm32f1xx_hal_rcc.c ****     RCC_OscInitStruct->HSIState = RCC_HSI_OFF;
 2094              		.loc 1 1130 0
 2095 0026 0261     		str	r2, [r0, #16]
1131:Drivers/STM32F1xx_HAL_Driver/Src/stm32f1xx_hal_rcc.c ****   }
1132:Drivers/STM32F1xx_HAL_Driver/Src/stm32f1xx_hal_rcc.c ****   
1133:Drivers/STM32F1xx_HAL_Driver/Src/stm32f1xx_hal_rcc.c ****   RCC_OscInitStruct->HSICalibrationValue = (uint32_t)((RCC->CR & RCC_CR_HSITRIM) >> POSITION_VAL(RC
 2096              		.loc 1 1133 0
 2097 0028 1A68     		ldr	r2, [r3]
 2098              	.LVL182:
 2099              	.LBB282:
 2100              	.LBB281:
 2101              		.loc 2 531 0
 2102              		.syntax unified
 2103              	@ 531 "Drivers/CMSIS/Include/cmsis_gcc.h" 1
 2104 002a 91FAA1F1 		rbit r1, r1
 2105              	@ 0 "" 2
 2106              	.LVL183:
 2107              		.thumb
 2108              		.syntax unified
 2109              	.LBE281:
 2110              	.LBE282:
 2111              		.loc 1 1133 0
 2112 002e B1FA81F1 		clz	r1, r1
 2113 0032 02F0F802 		and	r2, r2, #248
 2114 0036 CA40     		lsrs	r2, r2, r1
 2115 0038 4261     		str	r2, [r0, #20]
1134:Drivers/STM32F1xx_HAL_Driver/Src/stm32f1xx_hal_rcc.c ****   
1135:Drivers/STM32F1xx_HAL_Driver/Src/stm32f1xx_hal_rcc.c ****   /* Get the LSE configuration -----------------------------------------------*/
1136:Drivers/STM32F1xx_HAL_Driver/Src/stm32f1xx_hal_rcc.c ****   if((RCC->BDCR &RCC_BDCR_LSEBYP) == RCC_BDCR_LSEBYP)
 2116              		.loc 1 1136 0
 2117 003a 1A6A     		ldr	r2, [r3, #32]
 2118 003c 5107     		lsls	r1, r2, #29
 2119 003e 1DD5     		bpl	.L172
ARM GAS  /tmp/ccukyRaG.s 			page 70


1137:Drivers/STM32F1xx_HAL_Driver/Src/stm32f1xx_hal_rcc.c ****   {
1138:Drivers/STM32F1xx_HAL_Driver/Src/stm32f1xx_hal_rcc.c ****     RCC_OscInitStruct->LSEState = RCC_LSE_BYPASS;
 2120              		.loc 1 1138 0
 2121 0040 0522     		movs	r2, #5
 2122              	.L174:
1139:Drivers/STM32F1xx_HAL_Driver/Src/stm32f1xx_hal_rcc.c ****   }
1140:Drivers/STM32F1xx_HAL_Driver/Src/stm32f1xx_hal_rcc.c ****   else if((RCC->BDCR &RCC_BDCR_LSEON) == RCC_BDCR_LSEON)
1141:Drivers/STM32F1xx_HAL_Driver/Src/stm32f1xx_hal_rcc.c ****   {
1142:Drivers/STM32F1xx_HAL_Driver/Src/stm32f1xx_hal_rcc.c ****     RCC_OscInitStruct->LSEState = RCC_LSE_ON;
1143:Drivers/STM32F1xx_HAL_Driver/Src/stm32f1xx_hal_rcc.c ****   }
1144:Drivers/STM32F1xx_HAL_Driver/Src/stm32f1xx_hal_rcc.c ****   else
1145:Drivers/STM32F1xx_HAL_Driver/Src/stm32f1xx_hal_rcc.c ****   {
1146:Drivers/STM32F1xx_HAL_Driver/Src/stm32f1xx_hal_rcc.c ****     RCC_OscInitStruct->LSEState = RCC_LSE_OFF;
 2123              		.loc 1 1146 0
 2124 0042 C260     		str	r2, [r0, #12]
1147:Drivers/STM32F1xx_HAL_Driver/Src/stm32f1xx_hal_rcc.c ****   }
1148:Drivers/STM32F1xx_HAL_Driver/Src/stm32f1xx_hal_rcc.c ****   
1149:Drivers/STM32F1xx_HAL_Driver/Src/stm32f1xx_hal_rcc.c ****   /* Get the LSI configuration -----------------------------------------------*/
1150:Drivers/STM32F1xx_HAL_Driver/Src/stm32f1xx_hal_rcc.c ****   if((RCC->CSR &RCC_CSR_LSION) == RCC_CSR_LSION)
 2125              		.loc 1 1150 0
 2126 0044 5A6A     		ldr	r2, [r3, #36]
 2127 0046 12F00102 		ands	r2, r2, #1
1151:Drivers/STM32F1xx_HAL_Driver/Src/stm32f1xx_hal_rcc.c ****   {
1152:Drivers/STM32F1xx_HAL_Driver/Src/stm32f1xx_hal_rcc.c ****     RCC_OscInitStruct->LSIState = RCC_LSI_ON;
 2128              		.loc 1 1152 0
 2129 004a 18BF     		it	ne
 2130 004c 0122     		movne	r2, #1
1153:Drivers/STM32F1xx_HAL_Driver/Src/stm32f1xx_hal_rcc.c ****   }
1154:Drivers/STM32F1xx_HAL_Driver/Src/stm32f1xx_hal_rcc.c ****   else
1155:Drivers/STM32F1xx_HAL_Driver/Src/stm32f1xx_hal_rcc.c ****   {
1156:Drivers/STM32F1xx_HAL_Driver/Src/stm32f1xx_hal_rcc.c ****     RCC_OscInitStruct->LSIState = RCC_LSI_OFF;
 2131              		.loc 1 1156 0
 2132 004e 8261     		str	r2, [r0, #24]
1157:Drivers/STM32F1xx_HAL_Driver/Src/stm32f1xx_hal_rcc.c ****   }
1158:Drivers/STM32F1xx_HAL_Driver/Src/stm32f1xx_hal_rcc.c ****   
1159:Drivers/STM32F1xx_HAL_Driver/Src/stm32f1xx_hal_rcc.c **** 
1160:Drivers/STM32F1xx_HAL_Driver/Src/stm32f1xx_hal_rcc.c ****   /* Get the PLL configuration -----------------------------------------------*/
1161:Drivers/STM32F1xx_HAL_Driver/Src/stm32f1xx_hal_rcc.c ****   if((RCC->CR &RCC_CR_PLLON) == RCC_CR_PLLON)
 2133              		.loc 1 1161 0
 2134 0050 1A68     		ldr	r2, [r3]
 2135 0052 D201     		lsls	r2, r2, #7
1162:Drivers/STM32F1xx_HAL_Driver/Src/stm32f1xx_hal_rcc.c ****   {
1163:Drivers/STM32F1xx_HAL_Driver/Src/stm32f1xx_hal_rcc.c ****     RCC_OscInitStruct->PLL.PLLState = RCC_PLL_ON;
 2136              		.loc 1 1163 0
 2137 0054 4CBF     		ite	mi
 2138 0056 0222     		movmi	r2, #2
1164:Drivers/STM32F1xx_HAL_Driver/Src/stm32f1xx_hal_rcc.c ****   }
1165:Drivers/STM32F1xx_HAL_Driver/Src/stm32f1xx_hal_rcc.c ****   else
1166:Drivers/STM32F1xx_HAL_Driver/Src/stm32f1xx_hal_rcc.c ****   {
1167:Drivers/STM32F1xx_HAL_Driver/Src/stm32f1xx_hal_rcc.c ****     RCC_OscInitStruct->PLL.PLLState = RCC_PLL_OFF;
 2139              		.loc 1 1167 0
 2140 0058 0122     		movpl	r2, #1
 2141 005a C261     		str	r2, [r0, #28]
1168:Drivers/STM32F1xx_HAL_Driver/Src/stm32f1xx_hal_rcc.c ****   }
1169:Drivers/STM32F1xx_HAL_Driver/Src/stm32f1xx_hal_rcc.c ****   RCC_OscInitStruct->PLL.PLLSource = (uint32_t)(RCC->CFGR & RCC_CFGR_PLLSRC);
 2142              		.loc 1 1169 0
 2143 005c 5A68     		ldr	r2, [r3, #4]
ARM GAS  /tmp/ccukyRaG.s 			page 71


 2144 005e 02F48032 		and	r2, r2, #65536
 2145 0062 0262     		str	r2, [r0, #32]
1170:Drivers/STM32F1xx_HAL_Driver/Src/stm32f1xx_hal_rcc.c ****   RCC_OscInitStruct->PLL.PLLMUL = (uint32_t)(RCC->CFGR & RCC_CFGR_PLLMULL);
 2146              		.loc 1 1170 0
 2147 0064 5B68     		ldr	r3, [r3, #4]
 2148 0066 03F47013 		and	r3, r3, #3932160
 2149 006a 4362     		str	r3, [r0, #36]
 2150 006c 7047     		bx	lr
 2151              	.L167:
1113:Drivers/STM32F1xx_HAL_Driver/Src/stm32f1xx_hal_rcc.c ****   {
 2152              		.loc 1 1113 0
 2153 006e 1A68     		ldr	r2, [r3]
 2154 0070 12F48032 		ands	r2, r2, #65536
1115:Drivers/STM32F1xx_HAL_Driver/Src/stm32f1xx_hal_rcc.c ****   }
 2155              		.loc 1 1115 0
 2156 0074 18BF     		it	ne
 2157 0076 4FF48032 		movne	r2, #65536
 2158 007a C9E7     		b	.L169
 2159              	.L172:
1140:Drivers/STM32F1xx_HAL_Driver/Src/stm32f1xx_hal_rcc.c ****   {
 2160              		.loc 1 1140 0
 2161 007c 1A6A     		ldr	r2, [r3, #32]
 2162 007e 12F00102 		ands	r2, r2, #1
1142:Drivers/STM32F1xx_HAL_Driver/Src/stm32f1xx_hal_rcc.c ****   }
 2163              		.loc 1 1142 0
 2164 0082 18BF     		it	ne
 2165 0084 0122     		movne	r2, #1
 2166 0086 DCE7     		b	.L174
 2167              	.L181:
 2168              		.align	2
 2169              	.L180:
 2170 0088 00100240 		.word	1073876992
 2171              		.cfi_endproc
 2172              	.LFE74:
 2174              		.section	.text.HAL_RCC_GetClockConfig,"ax",%progbits
 2175              		.align	1
 2176              		.global	HAL_RCC_GetClockConfig
 2177              		.syntax unified
 2178              		.thumb
 2179              		.thumb_func
 2180              		.fpu softvfp
 2182              	HAL_RCC_GetClockConfig:
 2183              	.LFB75:
1171:Drivers/STM32F1xx_HAL_Driver/Src/stm32f1xx_hal_rcc.c **** #if defined(RCC_CR_PLL2ON)
1172:Drivers/STM32F1xx_HAL_Driver/Src/stm32f1xx_hal_rcc.c ****   /* Get the PLL2 configuration -----------------------------------------------*/
1173:Drivers/STM32F1xx_HAL_Driver/Src/stm32f1xx_hal_rcc.c ****   if((RCC->CR &RCC_CR_PLL2ON) == RCC_CR_PLL2ON)
1174:Drivers/STM32F1xx_HAL_Driver/Src/stm32f1xx_hal_rcc.c ****   {
1175:Drivers/STM32F1xx_HAL_Driver/Src/stm32f1xx_hal_rcc.c ****     RCC_OscInitStruct->PLL2.PLL2State = RCC_PLL2_ON;
1176:Drivers/STM32F1xx_HAL_Driver/Src/stm32f1xx_hal_rcc.c ****   }
1177:Drivers/STM32F1xx_HAL_Driver/Src/stm32f1xx_hal_rcc.c ****   else
1178:Drivers/STM32F1xx_HAL_Driver/Src/stm32f1xx_hal_rcc.c ****   {
1179:Drivers/STM32F1xx_HAL_Driver/Src/stm32f1xx_hal_rcc.c ****     RCC_OscInitStruct->PLL2.PLL2State = RCC_PLL2_OFF;
1180:Drivers/STM32F1xx_HAL_Driver/Src/stm32f1xx_hal_rcc.c ****   }
1181:Drivers/STM32F1xx_HAL_Driver/Src/stm32f1xx_hal_rcc.c ****   RCC_OscInitStruct->PLL2.HSEPrediv2Value = __HAL_RCC_HSE_GET_PREDIV2();
1182:Drivers/STM32F1xx_HAL_Driver/Src/stm32f1xx_hal_rcc.c ****   RCC_OscInitStruct->PLL2.PLL2MUL = (uint32_t)(RCC->CFGR2 & RCC_CFGR2_PLL2MUL);
1183:Drivers/STM32F1xx_HAL_Driver/Src/stm32f1xx_hal_rcc.c **** #endif /* RCC_CR_PLL2ON */
1184:Drivers/STM32F1xx_HAL_Driver/Src/stm32f1xx_hal_rcc.c **** }
ARM GAS  /tmp/ccukyRaG.s 			page 72


1185:Drivers/STM32F1xx_HAL_Driver/Src/stm32f1xx_hal_rcc.c **** 
1186:Drivers/STM32F1xx_HAL_Driver/Src/stm32f1xx_hal_rcc.c **** /**
1187:Drivers/STM32F1xx_HAL_Driver/Src/stm32f1xx_hal_rcc.c ****   * @brief  Get the RCC_ClkInitStruct according to the internal 
1188:Drivers/STM32F1xx_HAL_Driver/Src/stm32f1xx_hal_rcc.c ****   * RCC configuration registers.
1189:Drivers/STM32F1xx_HAL_Driver/Src/stm32f1xx_hal_rcc.c ****   * @param  RCC_ClkInitStruct pointer to an RCC_ClkInitTypeDef structure that 
1190:Drivers/STM32F1xx_HAL_Driver/Src/stm32f1xx_hal_rcc.c ****   * contains the current clock configuration.
1191:Drivers/STM32F1xx_HAL_Driver/Src/stm32f1xx_hal_rcc.c ****   * @param  pFLatency Pointer on the Flash Latency.
1192:Drivers/STM32F1xx_HAL_Driver/Src/stm32f1xx_hal_rcc.c ****   * @retval None
1193:Drivers/STM32F1xx_HAL_Driver/Src/stm32f1xx_hal_rcc.c ****   */
1194:Drivers/STM32F1xx_HAL_Driver/Src/stm32f1xx_hal_rcc.c **** void HAL_RCC_GetClockConfig(RCC_ClkInitTypeDef  *RCC_ClkInitStruct, uint32_t *pFLatency)
1195:Drivers/STM32F1xx_HAL_Driver/Src/stm32f1xx_hal_rcc.c **** {
 2184              		.loc 1 1195 0
 2185              		.cfi_startproc
 2186              		@ args = 0, pretend = 0, frame = 0
 2187              		@ frame_needed = 0, uses_anonymous_args = 0
 2188              		@ link register save eliminated.
 2189              	.LVL184:
1196:Drivers/STM32F1xx_HAL_Driver/Src/stm32f1xx_hal_rcc.c ****   /* Check the parameters */
1197:Drivers/STM32F1xx_HAL_Driver/Src/stm32f1xx_hal_rcc.c ****   assert_param(RCC_ClkInitStruct != NULL);
1198:Drivers/STM32F1xx_HAL_Driver/Src/stm32f1xx_hal_rcc.c ****   assert_param(pFLatency != NULL);
